Microsoft (R) Macro Assembler Version 14.00.24210.0	    04/01/26 23:13:23
neon_game_manager.asm					     Page 1 - 1


				; // ==================================
				; // neon_game_manager.asm
				; // ----------------------------------
				; // A GameObject with logic that controls the NeonSquare game.
				; // It is responsible for the spawning of obstacles that the
				; // player must avoid.
				; //
				; // If there is time to implement it, this can also
				; // handle logic like counting up the player's score or 
				; // adjusting the difficulty over time.
				; // ==================================

				INCLUDE default_header.inc
			      C .386
			      C .model flat, stdcall
			      C option casemap : none
			      C .stack 4096
			      C OPTION PROC : PRIVATE
			      C 
				INCLUDE engine_types.inc
			      C ; // ==================================
			      C ; // engine_types.inc
			      C ; // ----------------------------------
			      C ; // Misc types used throughout the engine. This file is old and
			      C ; // nonspecific and will be replaced by more specific header
			      C ; // files in the future. 
			      C ; // ==================================
			      C 
			      C IFNDEF ENGINE_TYPES_INC
 = 00000001		      C ENGINE_TYPES_INC EQU 1
			      C 
 = 00000050		      C SCREEN_WIDTH = 80
 = 00000032		      C SCREEN_HEIGHT = 50
			      C 
 00000004		      C Pixel STRUCT
 00000000  00		      C     r BYTE ?
 00000001  00		      C     g BYTE ?
 00000002  00		      C     b BYTE ?
 00000003  00		      C     a BYTE ?
			      C Pixel ENDS
			      C 
			      C ENDIF
			      C 
				INCLUDE game_object.inc
			      C ; // ==================================
			      C ; // GameObject
			      C ; // ----------------------------------
			      C ; //	GameObjects are the core elements of a scene
			      C ; // that contain gameplay logic and anything the player
			      C ; // will see.
			      C ; //	This STRUCT is intended to be 'subclassed' by 
			      C ; // overriding the virtual function table.
			      C ; //	GameObjects contain a list of components that
			      C ; // define utility behavior such as sprites to render
			      C ; // or animation states. These componenets are updated
			      C ; // by the scene_update to keep their auxillary functionality
			      C ; // separate from main game logic.
			      C ; // ==================================
			      C 
			      C IFNDEF GAME_OBJECT_INC
 = 00000001		      C GAME_OBJECT_INC EQU 1
			      C 
			      C INCLUDE game_object_ids.inc
			      C ; // ==================================
			      C ; // game_object_ids.inc
			      C ; // ----------------------------------
			      C ; // A set of "enum" style macros that identify GameObject types 
			      C ; // for the data definition and parsing of a scene's data.
			      C ; //
			      C ; // This is necessary because GameObjects are designed to be
			      C ; // subclassed into new unique types of GameObjects defined
			      C ; // by the user of this engine.
			      C ; // ==================================
			      C 
			      C IFNDEF GAME_OBJECT_IDS_INC
 = 00000001		      C GAME_OBJECT_IDS_INC EQU 1
			      C 
			      C ; // A helper function to make defining a bunch of enums smoother
 = 00000000		      C enumId = 0
			      C DEF_ENUM MACRO enum_name
			      C 	enum_name = enumId
			      C 	enumId = enumId + 1
			      C ENDM
			      C 
			      C ENUM_GAME_OBJECT_ID TYPEDEF DWORD
			      C 
			      C ; // List of GameObject identifiers
			      C DEF_ENUM DEFAULT_GAME_OBJECT_ID
			      C DEF_ENUM CAMERA_MOVER_GAME_OBJECT_ID
			      C DEF_ENUM NEON_SQUARE_PLAYER_GAME_OBJECT_ID
			      C DEF_ENUM WALL_OBSTACLE_GAME_OBJECT_ID
			      C DEF_ENUM NEON_GAME_MANAGER_GAME_OBJECT_ID
			      C 
			      C ENDIF
			      C 
			      C INCLUDE unordered_vector.inc
			      C ; // ==================================
			      C ; // unordered_vector.inc
			      C ; // ----------------------------------
			      C ; // unordered_vector are dynamic arrays of DWORDs
			      C ; // whose contents are not guaranteed to be in the same
			      C ; // order after a removal. They are typically used for 
			      C ; // pools of GameObject pointers whose order doesn't matter.
			      C ; // ==================================
			      C 
			      C IFNDEF UNORDERED_VECTOR_INC
 = 00000001		      C UNORDERED_VECTOR_INC EQU 1
			      C 
 0000000C		      C UnorderedVector STRUCT
 00000000  00000000	      C 	pData		DWORD ?
 00000004  00000000	      C 	count		DWORD ?
 00000008  00000000	      C 	capacity	DWORD ?
			      C UnorderedVector ENDS
			      C 
			      C ; // Constructors
			      C init_unordered_vector PROTO capacity : DWORD
			      C new_unordered_vector PROTO capacity: DWORD
			      C free_unordered_vector PROTO
			      C 
			      C ; // Instance methods
			      C push_back PROTO element: DWORD
			      C remove_element PROTO element: DWORD
			      C 
			      C ENDIF
			      C 
			      C INCLUDE component_ids.inc
			      C ; // ==================================
			      C ; // component_ids.inc
			      C ; // ----------------------------------
			      C ; // A set of "enum" style macros that identify component types 
			      C ; // for the data definition and parsing of a scene's data.
			      C ; // ==================================
			      C 
			      C IFNDEF COMPONENT_IDS_INC
 = 00000001		      C COMPONENT_IDS_INC EQU 1
			      C 
			      C ; // A helper function to make defining a bunch of enums smoother
 = 00000000		      C enumId = 0
			      C DEF_ENUM MACRO enum_name
			      C 	enum_name = enumId
			      C 	enumId = enumId + 1
			      C ENDM
			      C 
			      C ENUM_COMPONENT_ID TYPEDEF DWORD
			      C 
			      C ; // List of component identifiers
			      C DEF_ENUM DEFAULT_COMPONENT_ID
			      C DEF_ENUM RECT_COMPONENT_ID
			      C DEF_ENUM SPRITE_COMPONENT_ID
			      C DEF_ENUM TRANSFORM_COMPONENT_ID
			      C DEF_ENUM RENDERABLE_COMPONENT_ID
			      C 
			      C ENDIF
			      C 
			      C 
			      C ENUM_GAME_OBJECT_ID TYPEDEF DWORD
			      C 
 00000010		      C GameObject_vtable STRUCT
 00000000  00000000	      C 	pStart DWORD ? ; For game logic that should run just after the GameObjec is initialized
 00000004  00000000	      C 	pUpdate DWORD ? ; For game logic that will run every frame update
 00000008  00000000	      C 	pExit DWORD ? ; For game logic that should run just before the GameObject is freed
 0000000C  00000000	      C 	pFree DWORD ? ; Destructor
			      C GameObject_vtable ENDS
			      C 
 0000001C		      C GameObject STRUCT
 00000000  00000000	      C 	gameObjectType ENUM_GAME_OBJECT_ID ?
 00000004  00000000	      C 	components UnorderedVector <>
	   00000000
	   00000000
 00000010  00000000	      C 	pVt DWORD ? ; Pointer to a virtual function table
			      C 
 00000014  00000000	      C 	pParentScene DWORD ?
			      C 
			      C 	; // Flags
 00000018  00000000	      C 	awaitingFree DWORD ? ; // Whether the object is awaiting removal from the scene. Zero if FALSE, nonzero if TRUE
			      C GameObject ENDS
			      C 
			      C ; // Static methods
			      C add_component PROTO pGameObject: DWORD, pComponent: DWORD
			      C check_rect_collision PROTO pRect1 : DWORD, pTrans1 : DWORD, pRect2 : DWORD, pTrans2 : DWORD
			      C 
			      C ; // Constructors
			      C init_game_object PROTO maxComponents : DWORD
			      C new_game_object PROTO maxComponents : DWORD
			      C free_game_object PROTO
			      C 
			      C ; // Instance methods
			      C get_first_component_which_is_a	PROTO componentType : ENUM_COMPONENT_ID
			      C game_object_start_virtual		PROTO
			      C game_object_free_virtual		PROTO
			      C game_object_update_virtual		PROTO deltaTime : REAL4
			      C game_object_exit				PROTO
			      C game_object_start				PROTO
			      C game_object_update				PROTO deltaTime: REAL4
			      C 
			      C ENDIF
			      C 
				INCLUDE game_object_ids.inc
			      C ; // ==================================
			      C ; // game_object_ids.inc
			      C ; // ----------------------------------
			      C ; // A set of "enum" style macros that identify GameObject types 
			      C ; // for the data definition and parsing of a scene's data.
			      C ; //
			      C ; // This is necessary because GameObjects are designed to be
			      C ; // subclassed into new unique types of GameObjects defined
			      C ; // by the user of this engine.
			      C ; // ==================================
			      C 
			      C IFNDEF GAME_OBJECT_IDS_INC
			      C ENDIF
			      C 
				INCLUDE scene.inc
			      C ; // ==================================
			      C ; // Scene
			      C ; // ----------------------------------
			      C ; // Scenes are classes that hold a single section of a game. A scene contains a
			      C ; // pointer to a list of GameObjects that is updated by the scene_update function.
			      C ; // The scene also updates simulations and any game logic that isn't handled directly
			      C ; // by GameObjects or their components. At the end of every update, the scene will
			      C ; // call the renderer module to render its contents.
			      C ; // ==================================
			      C 
			      C IFNDEF SCENE_INC
 = 00000001		      C SCENE_INC EQU 1
			      C 
			      C INCLUDE unordered_vector.inc
			      C ; // ==================================
			      C ; // unordered_vector.inc
			      C ; // ----------------------------------
			      C ; // unordered_vector are dynamic arrays of DWORDs
			      C ; // whose contents are not guaranteed to be in the same
			      C ; // order after a removal. They are typically used for 
			      C ; // pools of GameObject pointers whose order doesn't matter.
			      C ; // ==================================
			      C 
			      C IFNDEF UNORDERED_VECTOR_INC
			      C ENDIF
			      C 
			      C INCLUDE game_object_ids.inc
			      C ; // ==================================
			      C ; // game_object_ids.inc
			      C ; // ----------------------------------
			      C ; // A set of "enum" style macros that identify GameObject types 
			      C ; // for the data definition and parsing of a scene's data.
			      C ; //
			      C ; // This is necessary because GameObjects are designed to be
			      C ; // subclassed into new unique types of GameObjects defined
			      C ; // by the user of this engine.
			      C ; // ==================================
			      C 
			      C IFNDEF GAME_OBJECT_IDS_INC
			      C ENDIF
			      C 
			      C INCLUDE camera.inc 
			      C ; // ==================================
			      C ; // camera.inc
			      C ; // ----------------------------------
			      C ; // A camera defines where spatially a scene should
			      C ; // render its GameObjects.
			      C ; // ==================================
			      C 
			      C IFNDEF CAMERA_INC
 = 00000001		      C CAMERA_INC EQU 1
			      C 
 00000010		      C Camera STRUCT
			      C 	; // Perhaps, some time in the future, this data could be 
			      C 	; // replaced by a TransformComponent.
 00000000  00000000	      C 	x DWORD ?
 00000004  00000000	      C 	y DWORD ?
			      C 
			      C 	; // These are out of scope for the project and are unused
 00000008  00000000	      C 	h DWORD ? ; // Viewport Height
 0000000C  00000000	      C 	w DWORD ? ; // Viewport Width
			      C Camera ENDS
			      C 
			      C init_camera PROTO x: DWORD, y: DWORD
			      C new_camera PROTO x: DWORD, y: DWORD
			      C free_camera PROTO 
			      C 
			      C ENDIF
			      C 
			      C 
 00000040		      C Scene STRUCT
 00000000  00000000	      C 	camera Camera<>
	   00000000
	   00000000
	   00000000
			      C 
			      C 	; // The list of GameObjects in this Scene instance.
 00000010  00000000	      C 	gameObjects UnorderedVector<>
	   00000000
	   00000000
			      C 	
			      C 	; // The start queue is a list of GameObjects created by the add_gameobject method
 0000001C  00000000	      C 	startQueue UnorderedVector<>
	   00000000
	   00000000
			      C 
			      C 	; // The free queue is a list of GameObjects to free at the end of the frame
 00000028  00000000	      C 	freeQueue UnorderedVector<>
	   00000000
	   00000000
			      C 
			      C 	; // The list of renderCommands that is built at the end of each frame
 00000034  00000000	      C 	renderCommands UnorderedVector<>
	   00000000
	   00000000
			      C Scene ENDS
			      C 
			      C ; // Constructors
			      C init_scene	PROTO maxGameObjects		: DWORD
			      C new_scene	PROTO maxGameObjects		: DWORD
			      C free_scene	PROTO
			      C 
			      C ; // Instance methods
			      C get_first_game_object_which_is_a	PROTO gameObjectType: ENUM_GAME_OBJECT_ID
			      C instantiate_game_object				PROTO pGameObject	: DWORD
			      C queue_free_game_object				PROTO pGameObject	: DWORD
			      C scene_update						PROTO deltaTime		: REAL4
			      C 
			      C ENDIF
			      C 
				INCLUDE wall_obstacle.inc
			      C ; // ==================================
			      C ; // wall_obstacle.inc
			      C ; // ----------------------------------
			      C ; // Wall obstacles push the player off the screen. The player
			      C ; // must avoid them to avoid losing the game.
			      C ; // ==================================
			      C 
			      C IFNDEF WALL_OBSTACLE_INC
 = 00000001		      C WALL_OBSTACLE_INC EQU 1
			      C 
			      C INCLUDE game_object.inc
			      C ; // ==================================
			      C ; // GameObject
			      C ; // ----------------------------------
			      C ; //	GameObjects are the core elements of a scene
			      C ; // that contain gameplay logic and anything the player
			      C ; // will see.
			      C ; //	This STRUCT is intended to be 'subclassed' by 
			      C ; // overriding the virtual function table.
			      C ; //	GameObjects contain a list of components that
			      C ; // define utility behavior such as sprites to render
			      C ; // or animation states. These componenets are updated
			      C ; // by the scene_update to keep their auxillary functionality
			      C ; // separate from main game logic.
			      C ; // ==================================
			      C 
			      C IFNDEF GAME_OBJECT_INC
			      C ENDIF
			      C 
			      C 
 00000020		      C WallObstacle STRUCT
 00000000  00000000	      C 	baseGameObject GameObject<>
	   00000000
	   00000000
	   00000000
	   00000000
	   00000000
	   00000000
			      C 
 0000001C  00000000	      C 	pNeonPlayer DWORD ?
			      C WallObstacle ENDS
			      C 
			      C init_wall_obstacle	PROTO startX : DWORD, startY : DWORD, height : DWORD
			      C new_wall_obstacle	PROTO startX : DWORD, startY : DWORD, height : DWORD
			      C 
			      C ENDIF
			      C 
				INCLUDE neon_square_player.inc
			      C ; // ==================================
			      C ; // neon_square_player.asm
			      C ; // ----------------------------------
			      C ; // The NeonSquarePlayer is a subclass of GameObject that functions
			      C ; // as the player in the NeonSquareScene.
			      C ; // ==================================
			      C 
			      C IFNDEF NEON_SQUARE_PLAYER_INC
 = 00000001		      C NEON_SQUARE_PLAYER_INC EQU 1
			      C 
			      C INCLUDE game_object.inc
			      C ; // ==================================
			      C ; // GameObject
			      C ; // ----------------------------------
			      C ; //	GameObjects are the core elements of a scene
			      C ; // that contain gameplay logic and anything the player
			      C ; // will see.
			      C ; //	This STRUCT is intended to be 'subclassed' by 
			      C ; // overriding the virtual function table.
			      C ; //	GameObjects contain a list of components that
			      C ; // define utility behavior such as sprites to render
			      C ; // or animation states. These componenets are updated
			      C ; // by the scene_update to keep their auxillary functionality
			      C ; // separate from main game logic.
			      C ; // ==================================
			      C 
			      C IFNDEF GAME_OBJECT_INC
			      C ENDIF
			      C 
			      C 
 0000001C		      C NeonSquarePlayer STRUCT
 00000000  00000000	      C 	baseGameObject GameObject<>
	   00000000
	   00000000
	   00000000
	   00000000
	   00000000
	   00000000
			      C NeonSquarePlayer ENDS
			      C 
			      C init_neon_square_player PROTO
			      C new_neon_square_player PROTO
			      C 
			      C ENDIF
			      C 
				INCLUDE neon_game_manager.inc
			      C ; // ==================================
			      C ; // neon_game_manager.inc
			      C ; // ----------------------------------
			      C ; // A GameObject with logic that controls the NeonSquare game.
			      C ; // It is responsible for the spawning of obstacles that the
			      C ; // player must avoid.
			      C ; //
			      C ; // If there is time to implement it, this can also
			      C ; // handle logic like counting up the player's score or 
			      C ; // adjusting the difficulty over time.
			      C ; // ==================================
			      C 
			      C IFNDEF NEON_GAME_MANAGER_INC
 = 00000001		      C NEON_GAME_MANAGER_INC EQU 1
			      C 
			      C INCLUDE game_object.inc
			      C ; // ==================================
			      C ; // GameObject
			      C ; // ----------------------------------
			      C ; //	GameObjects are the core elements of a scene
			      C ; // that contain gameplay logic and anything the player
			      C ; // will see.
			      C ; //	This STRUCT is intended to be 'subclassed' by 
			      C ; // overriding the virtual function table.
			      C ; //	GameObjects contain a list of components that
			      C ; // define utility behavior such as sprites to render
			      C ; // or animation states. These componenets are updated
			      C ; // by the scene_update to keep their auxillary functionality
			      C ; // separate from main game logic.
			      C ; // ==================================
			      C 
			      C IFNDEF GAME_OBJECT_INC
			      C ENDIF
			      C 
			      C 
			      C ; // State enums
			      C GAME_MANAGER_STATE_ENUM typedef DWORD
			      C 
 = 00000000		      C DEFAULT_STATE_ENUM		= 0
 = 00000001		      C TUNNEL_STATE_ENUM		= 1
 = 00000002		      C STAIRCASE_STATE_ENUM	= 2
 = 00000003		      C BARRIER_STATE_ENUM		= 3
			      C 
 00000028		      C NeonGameManager STRUCT
 00000000  00000000	      C 	baseGameObject GameObject<>
	   00000000
	   00000000
	   00000000
	   00000000
	   00000000
	   00000000
			      C 
 0000001C  00000000	      C 	timer REAL4 ?
			      C 
 00000020  00000000	      C 	state GAME_MANAGER_STATE_ENUM ?
			      C 
 00000024  00000000	      C 	stateObjectCounter DWORD ?
			      C NeonGameManager ENDS
			      C 
			      C ; // Protos
			      C init_neon_game_manager PROTO
			      C new_neon_game_manager PROTO
			      C 
			      C ENDIF
			      C 
				INCLUDE heap_functions.inc
			      C ; // ==================================
			      C ; // heap_functions.inc
			      C ; // ----------------------------------
			      C ; // Functions used for dynamic memory management. This file was
			      C ; // added before we learned about heap memory management in class
			      C ; // so we could have easy memory management. My resource for this 
			      C ; // was the windows API reference and the class ch11 slides.
			      C ; // ==================================
			      C 
			      C IFNDEF HEAP_FUNCTIONS_INC
 = 00000001		      C HEAP_FUNCTIONS_INC EQU 1
			      C 
			      C ; // Constants
 = 00000008		      C HEAP_ZERO_MEMORY          equ 00000008h
 = 00000004		      C HEAP_GENERATE_EXCEPTIONS  equ 00000004h
 = 00000001		      C HEAP_NO_SERIALIZE         equ 00000001h
			      C 
 = 00000000		      C NULL   EQU 0
			      C 
			      C ; // Types
			      C HANDLE TYPEDEF DWORD
			      C 
			      C ; // Protos
			      C GetProcessHeap	PROTO
			      C HeapAlloc		PROTO,	hHeap:DWORD, dwFlags:DWORD, dwBytes:DWORD
			      C HeapFree		PROTO,	hHeap:DWORD, dwFlags:DWORD, lpMem:DWORD
			      C HeapReAlloc		PROTO,	hHeap:DWORD, dwFlags:DWORD, lpMem:DWORD,	dwBytes:DWORD
			      C 
			      C initialize_heap PROTO ; // This function is from heap_functions.asm. It gets the handle to the process heap and stores in hHeap
			      C 
			      C ; // Data
			      C EXTERNDEF hHeap:HANDLE ; // the heap handle is defined in heap_functions.asm
			      C 
			      C ENDIF
			      C 

				; // Irvine32 functions
				RandomRange PROTO
				Random32 PROTO

 00000000			.data
 00000000 00000000 E		NEON_GAME_MANAGER_GAMEOBJECT_VTABLE GameObject_vtable <OFFSET game_object_start, OFFSET neon_game_manager_update, OFFSET game_object_exit, OFFSET free_game_object>
	   000001B6 R
	   00000000 E
	   00000000 E

				; // Default state values
 00000010 3E800000		defaultSpawnTime REAL4 0.25
 = 0000000F			defaultStateObjectMin = 15
 = 0000001E			defaultStateObjectMax = 30

				; // Tunnel state values
 00000014 3E800000		tunnelSpawnTime REAL4 0.25
 = 0000000F			tunnelStateObjectMin = 15
 = 0000001E			tunnelStateObjectMax = 30

 00000000			.code
				; // ********************************************
				; // Constructor Methods
				; // ********************************************

				; // ----------------------------------
				; // init_neon_game_manager
				; // Initializes memory with the contents of a NeonGameManager
				; // 
				; // Register Parameters: 
				; //	ecx - THIS pointer
				; // ----------------------------------
 00000000			init_neon_game_manager PROC PUBLIC USES esi ebx edx
					local pThis
 00000000  55		   *	    push   ebp
 00000001  8B EC	   *	    mov    ebp, esp
 00000003  83 C4 FC	   *	    add    esp, 0FFFFFFFCh
 00000006  56		   *	    push   esi
 00000007  53		   *	    push   ebx
 00000008  52		   *	    push   edx
 00000009  89 4D FC			mov pThis, ecx

					; // Parent constructor
					INVOKE init_game_object, 2
 0000000C  6A 02	   *	    push   +000000002h
 0000000E  E8 00000000 E   *	    call   init_game_object
 00000013  C7 01 00000004		mov (GameObject PTR [ecx]).gameObjectType, NEON_GAME_MANAGER_GAME_OBJECT_ID
 00000019  C7 41 10			mov (GameObject PTR [ecx]).pVt, OFFSET NEON_GAME_MANAGER_GAMEOBJECT_VTABLE
	   00000000 R

					; // My constructor
 00000020  C7 41 1C			mov (NeonGameManager PTR [ecx]).timer, 0
	   00000000
 00000027  C7 41 20			mov (NeonGameManager PTR [ecx]).state, DEFAULT_STATE_ENUM
	   00000000
 0000002E  C7 41 24			mov (NeonGameManager PTR [ecx]).stateObjectCounter, defaultStateObjectMin
	   0000000F
						
 00000035  8B 45 FC			mov eax, pThis
						
					ret
 00000038  5A		   *	    pop    edx
 00000039  5B		   *	    pop    ebx
 0000003A  5E		   *	    pop    esi
 0000003B  C9		   *	    leave  
 0000003C  C3		   *	    ret    00000h
 0000003D			init_neon_game_manager ENDP

				; // ----------------------------------
				; // new_neon_game_manager
				; // Reserves heap space for the Object with parameters calls the initializer method
				; // ----------------------------------
 0000003D			new_neon_game_manager PROC PUBLIC USES ecx
 0000003D  51		   *	    push   ecx
					INVOKE HeapAlloc, hHeap, HEAP_GENERATE_EXCEPTIONS, SIZEOF NeonGameManager
 0000003E  6A 28	   *	    push   +000000028h
 00000040  6A 04	   *	    push   +000000004h
 00000042  FF 35 00000000 E *	    push   hHeap
 00000048  E8 00000000 E   *	    call   HeapAlloc
 0000004D  8B C8			mov ecx, eax ; // Move the memory address to ecx so it can function as a "this" pointer
					INVOKE init_neon_game_manager
 0000004F  E8 FFFFFFAC	   *	    call   init_neon_game_manager

					ret ; // Return with the address of the memory block in HeapAlloc
 00000054  59		   *	    pop    ecx
 00000055  C3		   *	    ret    00000h
 00000056			new_neon_game_manager ENDP

				; // ********************************************
				; // Instance methods
				; // ********************************************

				; // ----------------------------------
				; // transition_state
				; // Randomly decides what the next state will be
				; // 
				; // Register Parameters: 
				; //	ecx - THIS pointer
				; // ----------------------------------
 00000056			transition_state PROC USES eax ebx edx esi edi
 00000056  50		   *	    push   eax
 00000057  53		   *	    push   ebx
 00000058  52		   *	    push   edx
 00000059  56		   *	    push   esi
 0000005A  57		   *	    push   edi
 0000005B  B8 00000002			mov eax, 2
					INVOKE RandomRange
 00000060  E8 00000000 E   *	    call   RandomRange

					.IF eax == DEFAULT_STATE_ENUM
 00000065  0B C0	   *	    or	eax, eax
 00000067  75 23	   *	    jne    @C0001
 00000069  C7 41 20				mov (NeonGameManager PTR [ecx]).state, DEFAULT_STATE_ENUM
	   00000000
 00000070  C7 41 1C				mov (NeonGameManager PTR [ecx]).timer, 0
	   00000000
						
						; // Get a random number of objects in this scene
 00000077  B8 0000001E				mov eax, defaultStateObjectMax
 0000007C  83 E8 0F				sub eax, defaultStateObjectMin
						
						INVOKE RandomRange
 0000007F  E8 00000000 E   *	    call   RandomRange
 00000084  83 C0 0F				add eax, defaultStateObjectMin

 00000087  89 41 24				mov (NeonGameManager PTR [ecx]).stateObjectCounter, eax
					.ELSEIF eax == TUNNEL_STATE_ENUM
 0000008A  EB 26	   *	    jmp    @C0003
 0000008C		   *@C0001:
 0000008C  83 F8 01	   *	    cmp    eax, TUNNEL_STATE_ENUM
 0000008F  75 21	   *	    jne    @C0004
 00000091  C7 41 20				mov (NeonGameManager PTR [ecx]).state, TUNNEL_STATE_ENUM
	   00000001
 00000098  C7 41 1C				mov (NeonGameManager PTR [ecx]).timer, 0
	   00000000
						
						; // Get a random number of objects in this scene
 0000009F  B8 0000001E				mov eax, tunnelStateObjectMax
 000000A4  83 E8 0F				sub eax, tunnelStateObjectMin
						
						INVOKE RandomRange
 000000A7  E8 00000000 E   *	    call   RandomRange
 000000AC  83 C0 0F				add eax, tunnelStateObjectMin
							
 000000AF  89 41 24				mov (NeonGameManager PTR [ecx]).stateObjectCounter, eax
					.ENDIF
 000000B2		   *@C0004:
 000000B2		   *@C0003:

					ret
 000000B2  5F		   *	    pop    edi
 000000B3  5E		   *	    pop    esi
 000000B4  5A		   *	    pop    edx
 000000B5  5B		   *	    pop    ebx
 000000B6  58		   *	    pop    eax
 000000B7  C3		   *	    ret    00000h
 000000B8			transition_state ENDP

				; // ----------------------------------
				; // default_state_update
				; // Spawns walls in random positions
				; // 
				; // Register Parameters: 
				; //	ecx - THIS pointer
				; // ----------------------------------
 000000B8			default_state_update PROC stdcall USES eax ebx edx esi edi, deltaTime: REAL4
					local pThis : DWORD
 000000B8  55		   *	    push   ebp
 000000B9  8B EC	   *	    mov    ebp, esp
 000000BB  83 C4 FC	   *	    add    esp, 0FFFFFFFCh
 000000BE  50		   *	    push   eax
 000000BF  53		   *	    push   ebx
 000000C0  52		   *	    push   edx
 000000C1  56		   *	    push   esi
 000000C2  57		   *	    push   edi
 000000C3  89 4D FC			mov pThis, ecx

					; // Update timer
 000000C6  D9 41 1C			fld (NeonGameManager PTR [ecx]).timer
 000000C9  D8 45 08		    fadd deltaTime
 000000CC  D9 51 1C		    fst (NeonGameManager PTR [ecx]).timer

					; // Determine if the timer is greater than or equal to spawnTime
 000000CF  D8 1D 00000010 R		fcomp defaultSpawnTime

					; // Get flags
 000000D5  DF E0			fnstsw ax
 000000D7  9E				sahf

 000000D8  72 42			jb default_state_update_skip_spawn
				   
					; // Set the timer to 0
 000000DA  C7 41 1C		    mov (NeonGameManager PTR [ecx]).timer, 0
	   00000000
				    
					; // Spawn the obstacle
 000000E1  8B 4D FC			mov ecx, pThis
 000000E4  8B 49 14			mov ecx, (GameObject PTR [ecx]).pParentScene
				
 000000E7  B8 00000032			mov eax, SCREEN_HEIGHT
 000000EC  83 E8 14			sub eax, 20
				
					INVOKE RandomRange
 000000EF  E8 00000000 E   *	    call   RandomRange
				
					INVOKE new_wall_obstacle, SCREEN_WIDTH, eax, 20
 000000F4  6A 14	   *	    push   +000000014h
 000000F6  50		   *	    push   eax
 000000F7  6A 50	   *	    push   +000000050h
 000000F9  E8 00000000 E   *	    call   new_wall_obstacle
					
 000000FE  8B 4D FC			mov ecx, pThis
 00000101  8B 49 14			mov ecx, (GameObject PTR [ecx]).pParentScene

					INVOKE instantiate_game_object, eax
 00000104  50		   *	    push   eax
 00000105  E8 00000000 E   *	    call   instantiate_game_object
				
 0000010A  8B 4D FC			mov ecx, pThis
 0000010D  FF 49 24			dec (NeonGameManager PTR [ecx]).stateObjectCounter
				
 00000110  8B 59 24			mov ebx, (NeonGameManager PTR[ecx]).stateObjectCounter
					.IF ebx == 0
 00000113  0B DB	   *	    or	ebx, ebx
 00000115  75 05	   *	    jne    @C0006
						INVOKE transition_state
 00000117  E8 FFFFFF3A	   *	    call   transition_state
					.ENDIF
 0000011C		   *@C0006:
				    
 0000011C			default_state_update_skip_spawn:
					ret
 0000011C  5F		   *	    pop    edi
 0000011D  5E		   *	    pop    esi
 0000011E  5A		   *	    pop    edx
 0000011F  5B		   *	    pop    ebx
 00000120  58		   *	    pop    eax
 00000121  C9		   *	    leave  
 00000122  C2 0004	   *	    ret    00004h
 00000125			default_state_update ENDP

				; // ----------------------------------
				; // tunnel_state_update
				; // Spawns walls in tunnels
				; // 
				; // Register Parameters: 
				; //	ecx - THIS pointer
				; // ----------------------------------
 00000125			tunnel_state_update PROC stdcall USES eax ebx edx esi edi, deltaTime: REAL4
					local pThis : DWORD
 00000125  55		   *	    push   ebp
 00000126  8B EC	   *	    mov    ebp, esp
 00000128  83 C4 FC	   *	    add    esp, 0FFFFFFFCh
 0000012B  50		   *	    push   eax
 0000012C  53		   *	    push   ebx
 0000012D  52		   *	    push   edx
 0000012E  56		   *	    push   esi
 0000012F  57		   *	    push   edi
 00000130  89 4D FC			mov pThis, ecx

					; // Update timer
 00000133  D9 41 1C			fld (NeonGameManager PTR [ecx]).timer
 00000136  D8 45 08		    fadd deltaTime
 00000139  D9 51 1C		    fst (NeonGameManager PTR [ecx]).timer

					; // Determine if the timer is greater than or equal to spawnTime
 0000013C  D8 1D 00000014 R		fcomp tunnelSpawnTime

					; // Get flags
 00000142  DF E0			fnstsw ax
 00000144  9E				sahf

 00000145  72 66			jb tunnel_state_update_skip_spawn
				   
					; // Set the timer to 0
 00000147  C7 41 1C		    mov (NeonGameManager PTR [ecx]).timer, 0
	   00000000
				    
					; // Spawn the obstacle
 0000014E  8B 4D FC			mov ecx, pThis
 00000151  8B 49 14			mov ecx, (GameObject PTR [ecx]).pParentScene
				
 00000154  B8 00000032			mov eax, SCREEN_HEIGHT
 00000159  83 E8 12			sub eax, 18
				
					INVOKE RandomRange
 0000015C  E8 00000000 E   *	    call   RandomRange
 00000161  83 C0 01			add eax, 1
				
 00000164  8B D8			mov ebx, eax ; // Store the random number in ebx
				
					; // Spawn the top wall
					INVOKE new_wall_obstacle, SCREEN_WIDTH, 0, ebx
 00000166  53		   *	    push   ebx
 00000167  6A 00	   *	    push   +000000000h
 00000169  6A 50	   *	    push   +000000050h
 0000016B  E8 00000000 E   *	    call   new_wall_obstacle
					
 00000170  8B 4D FC			mov ecx, pThis
 00000173  8B 49 14			mov ecx, (GameObject PTR [ecx]).pParentScene

					INVOKE instantiate_game_object, eax
 00000176  50		   *	    push   eax
 00000177  E8 00000000 E   *	    call   instantiate_game_object
				
					; // Now spawn the bottom wall
 0000017C  83 C3 11			add ebx, 17
 0000017F  BA 00000050			mov edx, SCREEN_WIDTH
 00000184  2B D3			sub edx, ebx
					INVOKE new_wall_obstacle, SCREEN_WIDTH, ebx, edx
 00000186  52		   *	    push   edx
 00000187  53		   *	    push   ebx
 00000188  6A 50	   *	    push   +000000050h
 0000018A  E8 00000000 E   *	    call   new_wall_obstacle
				
 0000018F  8B 4D FC			mov ecx, pThis
 00000192  8B 49 14			mov ecx, (GameObject PTR [ecx]).pParentScene

					INVOKE instantiate_game_object, eax
 00000195  50		   *	    push   eax
 00000196  E8 00000000 E   *	    call   instantiate_game_object
				
					; // Decrement the amount of objects left to spawn in this state
 0000019B  8B 4D FC			mov ecx, pThis
 0000019E  FF 49 24			dec (NeonGameManager PTR [ecx]).stateObjectCounter
				
 000001A1  8B 59 24			mov ebx, (NeonGameManager PTR[ecx]).stateObjectCounter
					.IF ebx == 0
 000001A4  0B DB	   *	    or	ebx, ebx
 000001A6  75 05	   *	    jne    @C0008
						INVOKE transition_state
 000001A8  E8 FFFFFEA9	   *	    call   transition_state
					.ENDIF
 000001AD		   *@C0008:
				    
 000001AD				tunnel_state_update_skip_spawn:
					

					ret
 000001AD  5F		   *	    pop    edi
 000001AE  5E		   *	    pop    esi
 000001AF  5A		   *	    pop    edx
 000001B0  5B		   *	    pop    ebx
 000001B1  58		   *	    pop    eax
 000001B2  C9		   *	    leave  
 000001B3  C2 0004	   *	    ret    00004h
 000001B6			tunnel_state_update ENDP

				; // ----------------------------------
				; // neon_game_manager_update
				; // Moves the wall to the left of the screen. This function uses FPU instructions
				; // that were not learned in class. These were added to accommodate for deltaTime
				; // being a REAL4.
				; // 
				; // Register Parameters: 
				; //	ecx - THIS pointer
				; // ----------------------------------
 000001B6			neon_game_manager_update PROC stdcall USES eax ebx edx esi edi, deltaTime: REAL4
					local pThis : DWORD
 000001B6  55		   *	    push   ebp
 000001B7  8B EC	   *	    mov    ebp, esp
 000001B9  83 C4 FC	   *	    add    esp, 0FFFFFFFCh
 000001BC  50		   *	    push   eax
 000001BD  53		   *	    push   ebx
 000001BE  52		   *	    push   edx
 000001BF  56		   *	    push   esi
 000001C0  57		   *	    push   edi
 000001C1  89 4D FC			mov pThis, ecx

 000001C4  8B 59 20			mov ebx, (NeonGameManager PTR[ecx]).state
					.IF ebx == DEFAULT_STATE_ENUM
 000001C7  0B DB	   *	    or	ebx, ebx
 000001C9  75 0A	   *	    jne    @C000A
						INVOKE default_state_update, deltaTime
 000001CB  FF 75 08	   *	    push   dword  ptr ss:[ebp]+000000008h
 000001CE  E8 FFFFFEE5	   *	    call   default_state_update
					.ELSEIF ebx == TUNNEL_STATE_ENUM
 000001D3  EB 0D	   *	    jmp    @C000C
 000001D5		   *@C000A:
 000001D5  83 FB 01	   *	    cmp    ebx, TUNNEL_STATE_ENUM
 000001D8  75 08	   *	    jne    @C000D
						INVOKE tunnel_state_update, deltaTime
 000001DA  FF 75 08	   *	    push   dword  ptr ss:[ebp]+000000008h
 000001DD  E8 FFFFFF43	   *	    call   tunnel_state_update
					.ENDIF
 000001E2		   *@C000D:
 000001E2		   *@C000C:
					
					ret
 000001E2  5F		   *	    pop    edi
 000001E3  5E		   *	    pop    esi
 000001E4  5A		   *	    pop    edx
 000001E5  5B		   *	    pop    ebx
 000001E6  58		   *	    pop    eax
 000001E7  C9		   *	    leave  
 000001E8  C2 0004	   *	    ret    00004h
 000001EB			neon_game_manager_update ENDP

				END 
Microsoft (R) Macro Assembler Version 14.00.24210.0	    04/01/26 23:13:23
neon_game_manager.asm					     Symbols 2 - 1




Macros:

                N a m e                 Type

DEF_ENUM . . . . . . . . . . . .	Proc


Structures and Unions:

                N a m e                  Size
                                         Offset      Type

Camera . . . . . . . . . . . . .	 00000010
  x  . . . . . . . . . . . . . .	 00000000	 DWord
  y  . . . . . . . . . . . . . .	 00000004	 DWord
  h  . . . . . . . . . . . . . .	 00000008	 DWord
  w  . . . . . . . . . . . . . .	 0000000C	 DWord
GameObject_vtable  . . . . . . .	 00000010
  pStart . . . . . . . . . . . .	 00000000	 DWord
  pUpdate  . . . . . . . . . . .	 00000004	 DWord
  pExit  . . . . . . . . . . . .	 00000008	 DWord
  pFree  . . . . . . . . . . . .	 0000000C	 DWord
GameObject . . . . . . . . . . .	 0000001C
  gameObjectType . . . . . . . .	 00000000	 DWord
  components . . . . . . . . . .	 00000004	 
  pVt  . . . . . . . . . . . . .	 00000010	 DWord
  pParentScene . . . . . . . . .	 00000014	 DWord
  awaitingFree . . . . . . . . .	 00000018	 DWord
NeonGameManager  . . . . . . . .	 00000028
  baseGameObject . . . . . . . .	 00000000	 
  timer  . . . . . . . . . . . .	 0000001C	 DWord
  state  . . . . . . . . . . . .	 00000020	 DWord
  stateObjectCounter . . . . . .	 00000024	 DWord
NeonSquarePlayer . . . . . . . .	 0000001C
  baseGameObject . . . . . . . .	 00000000	 
Pixel  . . . . . . . . . . . . .	 00000004
  r  . . . . . . . . . . . . . .	 00000000	 Byte
  g  . . . . . . . . . . . . . .	 00000001	 Byte
  b  . . . . . . . . . . . . . .	 00000002	 Byte
  a  . . . . . . . . . . . . . .	 00000003	 Byte
Scene  . . . . . . . . . . . . .	 00000040
  camera . . . . . . . . . . . .	 00000000	 XmmWord
  gameObjects  . . . . . . . . .	 00000010	 
  startQueue . . . . . . . . . .	 0000001C	 
  freeQueue  . . . . . . . . . .	 00000028	 
  renderCommands . . . . . . . .	 00000034	 
UnorderedVector  . . . . . . . .	 0000000C
  pData  . . . . . . . . . . . .	 00000000	 DWord
  count  . . . . . . . . . . . .	 00000004	 DWord
  capacity . . . . . . . . . . .	 00000008	 DWord
WallObstacle . . . . . . . . . .	 00000020
  baseGameObject . . . . . . . .	 00000000	 
  pNeonPlayer  . . . . . . . . .	 0000001C	 DWord


Types:

                N a m e                  Size     Attr

ENUM_COMPONENT_ID  . . . . . . .	 00000004     DWord
ENUM_GAME_OBJECT_ID  . . . . . .	 00000004     DWord
GAME_MANAGER_STATE_ENUM  . . . .	 00000004     DWord
HANDLE . . . . . . . . . . . . .	 00000004     DWord


Segments and Groups:

                N a m e                 Size     Length   Align   Combine Class

FLAT . . . . . . . . . . . . . .	GROUP
STACK  . . . . . . . . . . . . .	32 Bit	 00001000 DWord	  Stack	  'STACK'	 
_DATA  . . . . . . . . . . . . .	32 Bit	 00000018 DWord	  Public  'DATA'	
_TEXT  . . . . . . . . . . . . .	32 Bit	 000001EB DWord	  Public  'CODE'	


Procedures, parameters, and locals:

                N a m e                 Type     Value    Attr

GetProcessHeap . . . . . . . . .	P Near	 00000000 FLAT	Length= 00000000 External STDCALL
HeapAlloc  . . . . . . . . . . .	P Near	 00000000 FLAT	Length= 00000000 External STDCALL
HeapFree . . . . . . . . . . . .	P Near	 00000000 FLAT	Length= 00000000 External STDCALL
HeapReAlloc  . . . . . . . . . .	P Near	 00000000 FLAT	Length= 00000000 External STDCALL
Random32 . . . . . . . . . . . .	P Near	 00000000 FLAT	Length= 00000000 External STDCALL
RandomRange  . . . . . . . . . .	P Near	 00000000 FLAT	Length= 00000000 External STDCALL
add_component  . . . . . . . . .	P Near	 00000000 FLAT	Length= 00000000 External STDCALL
check_rect_collision . . . . . .	P Near	 00000000 FLAT	Length= 00000000 External STDCALL
default_state_update . . . . . .	P Near	 000000B8 _TEXT	Length= 0000006D Private STDCALL
  deltaTime  . . . . . . . . . .	DWord	 bp + 00000008
  pThis  . . . . . . . . . . . .	DWord	 bp - 00000004
  default_state_update_skip_spawn 	L Near	 0000011C _TEXT	
free_camera  . . . . . . . . . .	P Near	 00000000 FLAT	Length= 00000000 External STDCALL
free_game_object . . . . . . . .	P Near	 00000000 FLAT	Length= 00000000 External STDCALL
free_scene . . . . . . . . . . .	P Near	 00000000 FLAT	Length= 00000000 External STDCALL
free_unordered_vector  . . . . .	P Near	 00000000 FLAT	Length= 00000000 External STDCALL
game_object_exit . . . . . . . .	P Near	 00000000 FLAT	Length= 00000000 External STDCALL
game_object_free_virtual . . . .	P Near	 00000000 FLAT	Length= 00000000 External STDCALL
game_object_start_virtual  . . .	P Near	 00000000 FLAT	Length= 00000000 External STDCALL
game_object_start  . . . . . . .	P Near	 00000000 FLAT	Length= 00000000 External STDCALL
game_object_update_virtual . . .	P Near	 00000000 FLAT	Length= 00000000 External STDCALL
game_object_update . . . . . . .	P Near	 00000000 FLAT	Length= 00000000 External STDCALL
get_first_component_which_is_a .	P Near	 00000000 FLAT	Length= 00000000 External STDCALL
get_first_game_object_which_is_a .	P Near	 00000000 FLAT	Length= 00000000 External STDCALL
init_camera  . . . . . . . . . .	P Near	 00000000 FLAT	Length= 00000000 External STDCALL
init_game_object . . . . . . . .	P Near	 00000000 FLAT	Length= 00000000 External STDCALL
init_neon_game_manager . . . . .	P Near	 00000000 _TEXT	Length= 0000003D Public STDCALL
  pThis  . . . . . . . . . . . .	DWord	 bp - 00000004
init_neon_square_player  . . . .	P Near	 00000000 FLAT	Length= 00000000 External STDCALL
init_scene . . . . . . . . . . .	P Near	 00000000 FLAT	Length= 00000000 External STDCALL
init_unordered_vector  . . . . .	P Near	 00000000 FLAT	Length= 00000000 External STDCALL
init_wall_obstacle . . . . . . .	P Near	 00000000 FLAT	Length= 00000000 External STDCALL
initialize_heap  . . . . . . . .	P Near	 00000000 FLAT	Length= 00000000 External STDCALL
instantiate_game_object  . . . .	P Near	 00000000 FLAT	Length= 00000000 External STDCALL
neon_game_manager_update . . . .	P Near	 000001B6 _TEXT	Length= 00000035 Private STDCALL
  deltaTime  . . . . . . . . . .	DWord	 bp + 00000008
  pThis  . . . . . . . . . . . .	DWord	 bp - 00000004
new_camera . . . . . . . . . . .	P Near	 00000000 FLAT	Length= 00000000 External STDCALL
new_game_object  . . . . . . . .	P Near	 00000000 FLAT	Length= 00000000 External STDCALL
new_neon_game_manager  . . . . .	P Near	 0000003D _TEXT	Length= 00000019 Public STDCALL
new_neon_square_player . . . . .	P Near	 00000000 FLAT	Length= 00000000 External STDCALL
new_scene  . . . . . . . . . . .	P Near	 00000000 FLAT	Length= 00000000 External STDCALL
new_unordered_vector . . . . . .	P Near	 00000000 FLAT	Length= 00000000 External STDCALL
new_wall_obstacle  . . . . . . .	P Near	 00000000 FLAT	Length= 00000000 External STDCALL
push_back  . . . . . . . . . . .	P Near	 00000000 FLAT	Length= 00000000 External STDCALL
queue_free_game_object . . . . .	P Near	 00000000 FLAT	Length= 00000000 External STDCALL
remove_element . . . . . . . . .	P Near	 00000000 FLAT	Length= 00000000 External STDCALL
scene_update . . . . . . . . . .	P Near	 00000000 FLAT	Length= 00000000 External STDCALL
transition_state . . . . . . . .	P Near	 00000056 _TEXT	Length= 00000062 Private STDCALL
tunnel_state_update  . . . . . .	P Near	 00000125 _TEXT	Length= 00000091 Private STDCALL
  deltaTime  . . . . . . . . . .	DWord	 bp + 00000008
  pThis  . . . . . . . . . . . .	DWord	 bp - 00000004
  tunnel_state_update_skip_spawn .	L Near	 000001AD _TEXT	


Symbols:

                N a m e                 Type     Value    Attr

@CodeSize  . . . . . . . . . . .	Number	 00000000h   
@DataSize  . . . . . . . . . . .	Number	 00000000h   
@Interface . . . . . . . . . . .	Number	 00000003h   
@Model . . . . . . . . . . . . .	Number	 00000007h   
@code  . . . . . . . . . . . . .	Text   	 _TEXT
@data  . . . . . . . . . . . . .	Text   	 FLAT
@fardata?  . . . . . . . . . . .	Text   	 FLAT
@fardata . . . . . . . . . . . .	Text   	 FLAT
@stack . . . . . . . . . . . . .	Text   	 FLAT
BARRIER_STATE_ENUM . . . . . . .	Number	 00000003h   
CAMERA_INC . . . . . . . . . . .	Number	 00000001h   
CAMERA_MOVER_GAME_OBJECT_ID  . .	Number	 00000001h   
COMPONENT_IDS_INC  . . . . . . .	Number	 00000001h   
DEFAULT_COMPONENT_ID . . . . . .	Number	 00000000h   
DEFAULT_GAME_OBJECT_ID . . . . .	Number	 00000000h   
DEFAULT_STATE_ENUM . . . . . . .	Number	 00000000h   
ENGINE_TYPES_INC . . . . . . . .	Number	 00000001h   
GAME_OBJECT_IDS_INC  . . . . . .	Number	 00000001h   
GAME_OBJECT_INC  . . . . . . . .	Number	 00000001h   
HEAP_FUNCTIONS_INC . . . . . . .	Number	 00000001h   
HEAP_GENERATE_EXCEPTIONS . . . .	Number	 00000004h   
HEAP_NO_SERIALIZE  . . . . . . .	Number	 00000001h   
HEAP_ZERO_MEMORY . . . . . . . .	Number	 00000008h   
NEON_GAME_MANAGER_GAMEOBJECT_VTABLE 	GameObject_vtable  00000000 _DATA	
NEON_GAME_MANAGER_GAME_OBJECT_ID .	Number	 00000004h   
NEON_GAME_MANAGER_INC  . . . . .	Number	 00000001h   
NEON_SQUARE_PLAYER_GAME_OBJECT_ID 	Number	 00000002h   
NEON_SQUARE_PLAYER_INC . . . . .	Number	 00000001h   
NULL . . . . . . . . . . . . . .	Number	 00000000h   
RECT_COMPONENT_ID  . . . . . . .	Number	 00000001h   
RENDERABLE_COMPONENT_ID  . . . .	Number	 00000004h   
SCENE_INC  . . . . . . . . . . .	Number	 00000001h   
SCREEN_HEIGHT  . . . . . . . . .	Number	 00000032h   
SCREEN_WIDTH . . . . . . . . . .	Number	 00000050h   
SPRITE_COMPONENT_ID  . . . . . .	Number	 00000002h   
STAIRCASE_STATE_ENUM . . . . . .	Number	 00000002h   
TRANSFORM_COMPONENT_ID . . . . .	Number	 00000003h   
TUNNEL_STATE_ENUM  . . . . . . .	Number	 00000001h   
UNORDERED_VECTOR_INC . . . . . .	Number	 00000001h   
WALL_OBSTACLE_GAME_OBJECT_ID . .	Number	 00000003h   
WALL_OBSTACLE_INC  . . . . . . .	Number	 00000001h   
defaultSpawnTime . . . . . . . .	DWord	 00000010 _DATA	
defaultStateObjectMax  . . . . .	Number	 0000001Eh   
defaultStateObjectMin  . . . . .	Number	 0000000Fh   
enumId . . . . . . . . . . . . .	Number	 00000005h   
hHeap  . . . . . . . . . . . . .	DWord	 00000000 FLAT	External STDCALL
tunnelSpawnTime  . . . . . . . .	DWord	 00000014 _DATA	
tunnelStateObjectMax . . . . . .	Number	 0000001Eh   
tunnelStateObjectMin . . . . . .	Number	 0000000Fh   

	   0 Warnings
	   0 Errors
