Microsoft (R) Macro Assembler Version 14.00.24210.0	    03/31/26 23:04:47
unordered_vector.asm					     Page 1 - 1


				; // ==================================
				; // unordered_vector.asm
				; // ----------------------------------
				; // unordered_vector are dynamic arrays of DWORDs
				; // whose contents are not guaranteed to be in the same
				; // order after a removal. They are typically used for 
				; // pools of GameObject pointers whose order doesn't matter.
				; // ==================================

				INCLUDE default_header.inc
			      C .386
			      C .model flat, stdcall
			      C option casemap : none
			      C .stack 4096
			      C OPTION PROC : PRIVATE
			      C 
				INCLUDE heap_functions.inc
			      C ; // ==================================
			      C ; // heap_functions.inc
			      C ; // ----------------------------------
			      C ; // Functions used for dynamic memory management. This file was
			      C ; // added before we learned about heap memory management in class
			      C ; // so we could have easy memory management. My resource for this 
			      C ; // was the windows API reference and the class ch11 slides.
			      C ; // ==================================
			      C 
			      C IFNDEF HEAP_FUNCTIONS_INC
 = 00000001		      C HEAP_FUNCTIONS_INC EQU 1
			      C 
			      C ; // Constants
 = 00000008		      C HEAP_ZERO_MEMORY          equ 00000008h
 = 00000004		      C HEAP_GENERATE_EXCEPTIONS  equ 00000004h
 = 00000001		      C HEAP_NO_SERIALIZE         equ 00000001h
			      C 
 = 00000000		      C NULL   EQU 0
			      C 
			      C ; // Types
			      C HANDLE TYPEDEF DWORD
			      C 
			      C ; // Protos
			      C GetProcessHeap	PROTO
			      C HeapAlloc		PROTO,	hHeap:DWORD, dwFlags:DWORD, dwBytes:DWORD
			      C HeapFree		PROTO,	hHeap:DWORD, dwFlags:DWORD, lpMem:DWORD
			      C HeapReAlloc		PROTO,	hHeap:DWORD, dwFlags:DWORD, lpMem:DWORD,	dwBytes:DWORD
			      C 
			      C initialize_heap PROTO ; // This function is from heap_functions.asm. It gets the handle to the process heap and stores in hHeap
			      C 
			      C ; // Data
			      C EXTERNDEF hHeap:HANDLE ; // the heap handle is defined in heap_functions.asm
			      C 
			      C ENDIF
			      C 
				INCLUDE unordered_vector.inc
			      C ; // ==================================
			      C ; // unordered_vector.inc
			      C ; // ----------------------------------
			      C ; // unordered_vector are dynamic arrays of DWORDs
			      C ; // whose contents are not guaranteed to be in the same
			      C ; // order after a removal. They are typically used for 
			      C ; // pools of GameObject pointers whose order doesn't matter.
			      C ; // ==================================
			      C 
			      C IFNDEF UNORDERED_VECTOR_INC
 = 00000001		      C UNORDERED_VECTOR_INC EQU 1
			      C 
 0000000C		      C UnorderedVector STRUCT
 00000000  00000000	      C 	pData		DWORD ?
 00000004  00000000	      C 	count		DWORD ?
 00000008  00000000	      C 	capacity	DWORD ?
			      C UnorderedVector ENDS
			      C 
			      C ; // Constructors
			      C init_unordered_vector PROTO capacity : DWORD
			      C new_unordered_vector PROTO capacity: DWORD
			      C free_unordered_vector PROTO
			      C 
			      C ; // Instance methods
			      C push_back PROTO element: DWORD
			      C remove_element PROTO element: DWORD
			      C 
			      C ENDIF
			      C 

 00000000			.code
				; // ********************************************
				; // Constructor Methods
				; // ********************************************

				; // ----------------------------------
				; // init_unordered_vector
				; // Initializes memory with the contents of an UnorderedVector
				; // 
				; // Register Parameters: 
				; //	ecx - THIS pointer
				; // ----------------------------------
 00000000			init_unordered_vector PROC PUBLIC USES esi, capacity : DWORD
					; // Allocate space for the data
 00000000  55		   *	    push   ebp
 00000001  8B EC	   *	    mov    ebp, esp
 00000003  56		   *	    push   esi
 00000004  8B 45 08			mov eax, capacity
 00000007  C1 E0 02			shl eax, 2 ; // multiply capacity by 4, SIZEOF DWORD

 0000000A  51				push ecx
					INVOKE HeapAlloc, hHeap, HEAP_GENERATE_EXCEPTIONS, eax
 0000000B  50		   *	    push   eax
 0000000C  6A 04	   *	    push   +000000004h
 0000000E  FF 35 00000000 E *	    push   hHeap
 00000014  E8 00000000 E   *	    call   HeapAlloc
 00000019  59				pop ecx

 0000001A  89 01			mov (UnorderedVector PTR [ecx]).pData, eax

					; // Initialize other member data
 0000001C  C7 41 04			mov (UnorderedVector PTR [ecx]).count, 0
	   00000000
 00000023  8B 75 08			mov esi, capacity
 00000026  89 71 08			mov (UnorderedVector PTR [ecx]).capacity, esi

 00000029  8B C1			mov eax, ecx ; // Return the this pointer
					ret
 0000002B  5E		   *	    pop    esi
 0000002C  C9		   *	    leave  
 0000002D  C2 0004	   *	    ret    00004h
 00000030			init_unordered_vector ENDP

				; // ----------------------------------
				; // new_unordered_vector
				; // Reserves heap space for the Object with parameters calls the initializer method
				; // ----------------------------------
 00000030			new_unordered_vector PROC PUBLIC USES ecx, capacity: DWORD
 00000030  55		   *	    push   ebp
 00000031  8B EC	   *	    mov    ebp, esp
 00000033  51		   *	    push   ecx
					INVOKE HeapAlloc, hHeap, HEAP_GENERATE_EXCEPTIONS, SIZEOF UnorderedVector
 00000034  6A 0C	   *	    push   +00000000Ch
 00000036  6A 04	   *	    push   +000000004h
 00000038  FF 35 00000000 E *	    push   hHeap
 0000003E  E8 00000000 E   *	    call   HeapAlloc
 00000043  8B C8			mov ecx, eax ; // Move the memory address to ecx so it can function as a "this" pointer
					INVOKE init_unordered_vector, capacity
 00000045  FF 75 08	   *	    push   dword  ptr ss:[ebp]+000000008h
 00000048  E8 FFFFFFB3	   *	    call   init_unordered_vector

					ret
 0000004D  59		   *	    pop    ecx
 0000004E  C9		   *	    leave  
 0000004F  C2 0004	   *	    ret    00004h
 00000052			new_unordered_vector ENDP

				; // ----------------------------------
				; // free_unordered_vector
				; // Convenient method for freeing an UnorderedVector
				; //
				; // Register Parameters: 
				; //	ecx - THIS pointer
				; // ----------------------------------
 00000052			free_unordered_vector PROC PUBLIC USES esi
					; // Free the data list
 00000052  56		   *	    push   esi
 00000053  8B 31			mov esi, (UnorderedVector PTR [ecx]).pData
 00000055  51				push ecx
					INVOKE HeapFree, hHeap, 0, esi
 00000056  56		   *	    push   esi
 00000057  6A 00	   *	    push   +000000000h
 00000059  FF 35 00000000 E *	    push   hHeap
 0000005F  E8 00000000 E   *	    call   HeapFree
 00000064  59				pop ecx

					ret
 00000065  5E		   *	    pop    esi
 00000066  C3		   *	    ret    00000h
 00000067			free_unordered_vector ENDP

				; // ********************************************
				; // Instance methods
				; // ********************************************

				; // ----------------------------------
				; // push_back
				; // Adds an element to the end of the vector
				; // and resizes the vector if necessary.
				; // 
				; // Register Parameters: 
				; //	ecx - THIS pointer
				; // ----------------------------------
 00000067			push_back PROC PUBLIC USES eax ebx edx edi, element: DWORD
 00000067  55		   *	    push   ebp
 00000068  8B EC	   *	    mov    ebp, esp
 0000006A  50		   *	    push   eax
 0000006B  53		   *	    push   ebx
 0000006C  52		   *	    push   edx
 0000006D  57		   *	    push   edi
 0000006E  8B 01			mov eax, (UnorderedVector PTR [ecx]).pData
 00000070  8B 59 04			mov ebx, (UnorderedVector PTR [ecx]).count
 00000073  8B 51 08			mov edx, (UnorderedVector PTR [ecx]).capacity

					; // Check if the vector needs to be resized first
					.IF ebx == edx
 00000076  3B DA	   *	    cmp    ebx, edx
 00000078  75 1C	   *	    jne    @C0001
						; // Double the capacity
 0000007A  D1 E2				shl edx, 1 
 0000007C  89 51 08				mov (UnorderedVector PTR [ecx]).capacity, edx
 0000007F  C1 E2 02				shl edx, 2 ; // multiply edx by SIZEOF DWORD (multiply by 4)

						; // ReAlloc the data
 00000082  51					push ecx
						INVOKE HeapReAlloc, hHeap, HEAP_GENERATE_EXCEPTIONS, (UnorderedVector PTR [ecx]).pData, edx
 00000083  52		   *	    push   edx
 00000084  FF 31	   *	    push   dword  ptr [ecx]
 00000086  6A 04	   *	    push   +000000004h
 00000088  FF 35 00000000 E *	    push   hHeap
 0000008E  E8 00000000 E   *	    call   HeapReAlloc
 00000093  59					pop ecx

 00000094  89 01				mov (UnorderedVector PTR [ecx]).pData, eax

					.ENDIF
 00000096		   *@C0001:

					; // Insert the data
 00000096  8B 39			mov edi, (UnorderedVector PTR [ecx]).pData
 00000098  8B 41 04			mov eax, (UnorderedVector PTR [ecx]).count
 0000009B  8B 5D 08			mov ebx, element

 0000009E  89 1C 87			mov [edi + eax * 4], ebx 
 000000A1  FF 41 04			inc (UnorderedVector PTR [ecx]).count

					ret
 000000A4  5F		   *	    pop    edi
 000000A5  5A		   *	    pop    edx
 000000A6  5B		   *	    pop    ebx
 000000A7  58		   *	    pop    eax
 000000A8  C9		   *	    leave  
 000000A9  C2 0004	   *	    ret    00004h
 000000AC			push_back ENDP

				; // ----------------------------------
				; // remove_element
				; // O(n) search for the element specified in the
				; // unordered_vector and then swaps it with the 
				; // element at the end of the vector and then 
				; // pops the element at the end.
				; // 
				; // Register Parameters: 
				; //	ecx - THIS pointer
				; // ----------------------------------
 000000AC			remove_element PROC PUBLIC USES edi ebx ecx edx, element: DWORD
					local success
 000000AC  55		   *	    push   ebp
 000000AD  8B EC	   *	    mov    ebp, esp
 000000AF  83 C4 FC	   *	    add    esp, 0FFFFFFFCh
 000000B2  57		   *	    push   edi
 000000B3  53		   *	    push   ebx
 000000B4  51		   *	    push   ecx
 000000B5  52		   *	    push   edx
 000000B6  C7 45 FC			mov success, 1 ; // Failure return code
	   00000001

 000000BD  8B F9			mov edi, ecx ; // Move the THIS pointer to edi

 000000BF  8B 07			mov eax, (UnorderedVector PTR [edi]).pData
 000000C1  8B 5F 04			mov ebx, (UnorderedVector PTR [edi]).count

 000000C4  B9 00000000			mov ecx, 0
					.WHILE ecx < ebx
 000000C9  EB 1E	   *	    jmp    @C0003
 000000CB		   *@C0004:
 000000CB  8B 14 88				mov edx, [eax + ecx * 4] ; // edx = pData[i]
						
						.IF edx == element
 000000CE  3B 55 08	   *	    cmp    edx, element
 000000D1  75 15	   *	    jne    @C0005
							; // Found the elemnt, swap and pop it
 000000D3  FF 4F 04					dec (UnorderedVector PTR [edi]).count ; // "pop" the last element

 000000D6  8B 5F 04					mov ebx, (UnorderedVector PTR [edi]).count
 000000D9  8B 14 98					mov edx, [eax + ebx * 4] ; // edx = pData[count - 1]

 000000DC  89 14 88					mov [eax + ecx * 4], edx ; // Swap the current position with the end position

 000000DF  C7 45 FC					mov success, 0 ; // Success return code
	   00000000
						.ELSE
 000000E6  EB 01	   *	    jmp    @C0007
 000000E8		   *@C0005:
 000000E8  41						inc ecx ; // Move to the next index if the element was not found
						.ENDIF
					.ENDW
 000000E9		   *@C0007:
 000000E9		   *@C0003:
 000000E9  3B CB	   *	    cmp    ecx, ebx
 000000EB  72 DE	   *	    jb	@C0004

 000000ED  8B 45 FC			mov eax, success

					ret
 000000F0  5A		   *	    pop    edx
 000000F1  59		   *	    pop    ecx
 000000F2  5B		   *	    pop    ebx
 000000F3  5F		   *	    pop    edi
 000000F4  C9		   *	    leave  
 000000F5  C2 0004	   *	    ret    00004h
 000000F8			remove_element ENDP

				END
Microsoft (R) Macro Assembler Version 14.00.24210.0	    03/31/26 23:04:47
unordered_vector.asm					     Symbols 2 - 1




Structures and Unions:

                N a m e                  Size
                                         Offset      Type

UnorderedVector  . . . . . . . .	 0000000C
  pData  . . . . . . . . . . . .	 00000000	 DWord
  count  . . . . . . . . . . . .	 00000004	 DWord
  capacity . . . . . . . . . . .	 00000008	 DWord


Types:

                N a m e                  Size     Attr

HANDLE . . . . . . . . . . . . .	 00000004     DWord


Segments and Groups:

                N a m e                 Size     Length   Align   Combine Class

FLAT . . . . . . . . . . . . . .	GROUP
STACK  . . . . . . . . . . . . .	32 Bit	 00001000 DWord	  Stack	  'STACK'	 
_DATA  . . . . . . . . . . . . .	32 Bit	 00000000 DWord	  Public  'DATA'	
_TEXT  . . . . . . . . . . . . .	32 Bit	 000000F8 DWord	  Public  'CODE'	


Procedures, parameters, and locals:

                N a m e                 Type     Value    Attr

GetProcessHeap . . . . . . . . .	P Near	 00000000 FLAT	Length= 00000000 External STDCALL
HeapAlloc  . . . . . . . . . . .	P Near	 00000000 FLAT	Length= 00000000 External STDCALL
HeapFree . . . . . . . . . . . .	P Near	 00000000 FLAT	Length= 00000000 External STDCALL
HeapReAlloc  . . . . . . . . . .	P Near	 00000000 FLAT	Length= 00000000 External STDCALL
free_unordered_vector  . . . . .	P Near	 00000052 _TEXT	Length= 00000015 Public STDCALL
init_unordered_vector  . . . . .	P Near	 00000000 _TEXT	Length= 00000030 Public STDCALL
  capacity . . . . . . . . . . .	DWord	 bp + 00000008
initialize_heap  . . . . . . . .	P Near	 00000000 FLAT	Length= 00000000 External STDCALL
new_unordered_vector . . . . . .	P Near	 00000030 _TEXT	Length= 00000022 Public STDCALL
  capacity . . . . . . . . . . .	DWord	 bp + 00000008
push_back  . . . . . . . . . . .	P Near	 00000067 _TEXT	Length= 00000045 Public STDCALL
  element  . . . . . . . . . . .	DWord	 bp + 00000008
remove_element . . . . . . . . .	P Near	 000000AC _TEXT	Length= 0000004C Public STDCALL
  element  . . . . . . . . . . .	DWord	 bp + 00000008
  success  . . . . . . . . . . .	DWord	 bp - 00000004


Symbols:

                N a m e                 Type     Value    Attr

@CodeSize  . . . . . . . . . . .	Number	 00000000h   
@DataSize  . . . . . . . . . . .	Number	 00000000h   
@Interface . . . . . . . . . . .	Number	 00000003h   
@Model . . . . . . . . . . . . .	Number	 00000007h   
@code  . . . . . . . . . . . . .	Text   	 _TEXT
@data  . . . . . . . . . . . . .	Text   	 FLAT
@fardata?  . . . . . . . . . . .	Text   	 FLAT
@fardata . . . . . . . . . . . .	Text   	 FLAT
@stack . . . . . . . . . . . . .	Text   	 FLAT
HEAP_FUNCTIONS_INC . . . . . . .	Number	 00000001h   
HEAP_GENERATE_EXCEPTIONS . . . .	Number	 00000004h   
HEAP_NO_SERIALIZE  . . . . . . .	Number	 00000001h   
HEAP_ZERO_MEMORY . . . . . . . .	Number	 00000008h   
NULL . . . . . . . . . . . . . .	Number	 00000000h   
UNORDERED_VECTOR_INC . . . . . .	Number	 00000001h   
hHeap  . . . . . . . . . . . . .	DWord	 00000000 FLAT	External STDCALL

	   0 Warnings
	   0 Errors
