Microsoft (R) Macro Assembler Version 14.00.24210.0	    03/24/26 23:20:37
classes_test.asm					     Page 1 - 1


				; // ==================================
				; // classes_test.asm
				; // ----------------------------------
				; // Tests if classes can be created and freed
				; //
				; // Usage: 
				; //	Exclude main.asm from the project and instead include this file, then build,
				; // run, and feel free to debug and test.
				; // ==================================

				INCLUDE default_header.inc
			      C .386
			      C .model flat, stdcall
			      C option casemap : none
			      C .stack 4096
			      C OPTION PROC : PRIVATE
			      C 
				INCLUDE heap_functions.inc
			      C ; // ==================================
			      C ; // heap_functions.inc
			      C ; // ----------------------------------
			      C ; // Functions used for dynamic memory management. This file was
			      C ; // added before we learned about heap memory management in class
			      C ; // so we could have easy memory management. My resource for this 
			      C ; // was the windows API reference and the class ch11 slides.
			      C ; // ==================================
			      C 
			      C IFNDEF HEAP_FUNCTIONS_INC
 = 00000001		      C HEAP_FUNCTIONS_INC EQU 1
			      C 
			      C ; // Constants
 = 00000008		      C HEAP_ZERO_MEMORY          equ 00000008h
 = 00000004		      C HEAP_GENERATE_EXCEPTIONS  equ 00000004h
 = 00000001		      C HEAP_NO_SERIALIZE         equ 00000001h
			      C 
 = 00000000		      C NULL   EQU 0
			      C 
			      C ; // Types
			      C HANDLE TYPEDEF DWORD
			      C 
			      C ; // Protos
			      C GetProcessHeap	PROTO
			      C HeapAlloc		PROTO,	hHeap:DWORD, dwFlags:DWORD, dwBytes:DWORD
			      C HeapFree		PROTO,	hHeap:DWORD, dwFlags:DWORD, lpMem:DWORD
			      C HeapReAlloc		PROTO,	hHeap:DWORD, dwFlags:DWORD, lpMem:DWORD,	dwBytes:DWORD
			      C 
			      C initialize_heap PROTO ; // This function is from heap_functions.asm. It gets the handle to the process heap and stores in hHeap
			      C 
			      C ; // Data
			      C EXTERNDEF hHeap:HANDLE ; // the heap handle is defined in heap_functions.asm
			      C 
			      C ENDIF
			      C 

				; // Classes
				INCLUDE transform_component.inc
			      C ; // ==================================
			      C ; // TransformComponent
			      C ; // ----------------------------------
			      C ; // Defines where in space a GameObject should be
			      C ; // represented.
			      C ; // ==================================
			      C 
			      C IFNDEF TRANSFORM_COMPONENT_INC
 = 00000001		      C TRANSFORM_COMPONENT_INC EQU 1
			      C 
			      C INCLUDE component.inc
			      C ; // ==================================
			      C ; // component.inc
			      C ; // ----------------------------------
			      C ; //	Components are utility helpers to GameObjects that
			      C ; // allow for easy adding of features and a composition
			      C ; // structure for them (HasA vs IsA). 
			      C ; //	Some examples of components are SpriteComponents
			      C ; // that describe what a GameObject should look like or
			      C ; // TransformComponents that describe where a GameObject
			      C ; // is located spatially. 
			      C ; //	This is the generic component STRUCT that
			      C ; // all components inherit from.
			      C ; // ==================================
			      C 
			      C IFNDEF COMPONENT_INC
 = 00000001		      C COMPONENT_INC EQU 1
			      C 
			      C INCLUDE component_ids.inc
			      C ; // ==================================
			      C ; // component_ids.inc
			      C ; // ----------------------------------
			      C ; // A set of "enum" style macros that identify component types 
			      C ; // for the data definition and parsing of a scene's data.
			      C ; // ==================================
			      C 
			      C IFNDEF COMPONENT_IDS_INC
 = 00000001		      C COMPONENT_IDS_INC EQU 1
			      C 
			      C ; // A helper function to make defining a bunch of enums smoother
 = 00000000		      C enumId = 0
			      C DEF_ENUM MACRO enum_name
			      C 	enum_name = enumId
			      C 	enumId = enumId + 1
			      C ENDM
			      C 
			      C ENUM_COMPONENT_ID TYPEDEF DWORD
			      C 
			      C ; // List of component identifiers
			      C DEF_ENUM DEFAULT_COMPONENT_ID
			      C DEF_ENUM RECT_COMPONENT_ID
			      C DEF_ENUM SPRITE_COMPONENT_ID
			      C DEF_ENUM TRANSFORM_COMPONENT_ID
			      C 
			      C ENDIF
			      C 
			      C 
 00000004		      C Component_vtable STRUCT
 00000000  00000000	      C 	pFree DWORD ?
			      C Component_vtable ENDS
			      C 
 00000008		      C Component STRUCT
 00000000  00000000	      C 	componentType ENUM_COMPONENT_ID DEFAULT_COMPONENT_ID
 00000004  00000000	      C 	pVt DWORD ?
			      C Component ENDS
			      C 
			      C ; // Constructor protos
			      C init_component PROTO
			      C new_component PROTO
			      C free_component PROTO
			      C 
			      C ENDIF
			      C 
			      C 
 00000014		      C TransformComponent STRUCT
 00000000  00000000	      C 	baseComponent Component <>
	   00000000
			      C 
 00000008  00000000	      C 	x DWORD ?
 0000000C  00000000	      C 	y DWORD ?
			      C 
			      C 	; // Whether to ignore the camera offset when rendering.
			      C 	; // Used for drawing UI items
 00000010  00000000	      C 	ignoreCamera DWORD ?
			      C 
			      C 	; // Out of scope for this project
			      C 	; // rotation DWORD ?
			      C 	; // scaleX DWORD ?
			      C 	; // scaleY DWORD ?
			      C TransformComponent ENDS
			      C 
			      C ; // Constructor methods
			      C init_transform_component PROTO x: DWORD, y : DWORD, ignoreCamera : DWORD
			      C new_transform_component PROTO x: DWORD, y: DWORD, ignoreCamera: DWORD
			      C free_transform_component PROTO
			      C 
			      C ENDIF
			      C 
				INCLUDE rect_component.inc
			      C ; // ==================================
			      C ; // RectComponent
			      C ; // ----------------------------------
			      C ; // Defines how a GameObject should appear using a rectangle.
			      C ; // Should be used with a transform for proper functionality.
			      C ; // The origin is defined by a transform.
			      C ; // ==================================
			      C 
			      C IFNDEF RECT_COMMAND_INC
 = 00000001		      C RECT_COMMAND_INC EQU 1
			      C 
			      C INCLUDE component.inc
			      C ; // ==================================
			      C ; // component.inc
			      C ; // ----------------------------------
			      C ; //	Components are utility helpers to GameObjects that
			      C ; // allow for easy adding of features and a composition
			      C ; // structure for them (HasA vs IsA). 
			      C ; //	Some examples of components are SpriteComponents
			      C ; // that describe what a GameObject should look like or
			      C ; // TransformComponents that describe where a GameObject
			      C ; // is located spatially. 
			      C ; //	This is the generic component STRUCT that
			      C ; // all components inherit from.
			      C ; // ==================================
			      C 
			      C IFNDEF COMPONENT_INC
			      C ENDIF
			      C 
			      C 
 00000018		      C RectComponent STRUCT
 00000000  00000000	      C 	baseComponent Component <>
	   00000000
			      C 
 00000008  00000000	      C 	h DWORD ? ; // Height
 0000000C  00000000	      C 	w DWORD ? ; // Width
			      C 
			      C 	; // Color (For future development, this should be an RGBA object)
			      C 	; // For simplicity reasons, it is 4 bytes for now. 
 00000010  00		      C 	r BYTE ?
 00000011  00		      C 	g BYTE ?
 00000012  00		      C 	b BYTE ?
 00000013  00		      C 	a BYTE ?
			      C 
 00000014  00000000	      C 	visible DWORD ?
			      C RectComponent ENDS
			      C 
			      C ; // Constructor methods
			      C init_rect_component PROTO h: DWORD, w : DWORD, r : BYTE, g : BYTE, b : BYTE, a : BYTE
			      C new_rect_component PROTO h: DWORD, w: DWORD, r: BYTE, g: BYTE, b:  BYTE, a: BYTE
			      C free_rect_component PROTO pRect: DWORD
			      C 
			      C ENDIF
			      C 
				INCLUDE render_command.inc
			      C ; // ==================================
			      C ; // render_command.inc
			      C ; // ----------------------------------
			      C ; // A render command is meant to be compiled into
			      C ; // a list of commands and passed to the renderer
			      C ; // which will decide how exactly to render all of
			      C ; // the commands passed to it.
			      C ; // ==================================
			      C 
			      C IFNDEF RENDERER_COMMAND_INC
 = 00000001		      C RENDERER_COMMAND_INC EQU 1
			      C 
			      C INCLUDE transform_component.inc
			      C ; // ==================================
			      C ; // TransformComponent
			      C ; // ----------------------------------
			      C ; // Defines where in space a GameObject should be
			      C ; // represented.
			      C ; // ==================================
			      C 
			      C IFNDEF TRANSFORM_COMPONENT_INC
			      C ENDIF
			      C 
			      C INCLUDE rect_component.inc
			      C ; // ==================================
			      C ; // RectComponent
			      C ; // ----------------------------------
			      C ; // Defines how a GameObject should appear using a rectangle.
			      C ; // Should be used with a transform for proper functionality.
			      C ; // The origin is defined by a transform.
			      C ; // ==================================
			      C 
			      C IFNDEF RECT_COMMAND_INC
			      C ENDIF
			      C 
			      C INCLUDE sprite_component.inc
			      C ; // ==================================
			      C ; // SpriteComponent
			      C ; // ----------------------------------
			      C ; // Defines how a GameObject should appear using a texture.
			      C ; // Should be used with a transform for proper functionality.
			      C ; // ==================================
			      C 
			      C IFNDEF SPRITE_COMPONENT_INC
 = 00000001		      C SPRITE_COMPONENT_INC EQU 1
			      C 
			      C INCLUDE component.inc
			      C ; // ==================================
			      C ; // component.inc
			      C ; // ----------------------------------
			      C ; //	Components are utility helpers to GameObjects that
			      C ; // allow for easy adding of features and a composition
			      C ; // structure for them (HasA vs IsA). 
			      C ; //	Some examples of components are SpriteComponents
			      C ; // that describe what a GameObject should look like or
			      C ; // TransformComponents that describe where a GameObject
			      C ; // is located spatially. 
			      C ; //	This is the generic component STRUCT that
			      C ; // all components inherit from.
			      C ; // ==================================
			      C 
			      C IFNDEF COMPONENT_INC
			      C ENDIF
			      C 
			      C 
 00000030		      C SpriteComponent STRUCT
 00000000  00000000	      C 	baseComponent Component <>
	   00000000
			      C 
 00000008  00000000	      C 	originX DWORD ?
 0000000C  00000000	      C 	originY DWORD ?
			      C 
 00000010  00000000	      C 	pTexture DWORD ?
			      C 
			      C 	; // Info about where the sprite is in the source buffer. (If using spritesheet cell)
 00000014  00000000	      C 	cellX DWORD ?
 00000018  00000000	      C 	cellY DWORD ?
 0000001C  00000000	      C 	cellW DWORD ?
 00000020  00000000	      C 	cellH DWORD ?
			      C 
			      C 	; // *************************
			      C 	; // Booleans (Maybe later these can be compressed into flags to save space)
			      C 	; // *************************
 00000024  00000000	      C 	flipX DWORD ?
 00000028  00000000	      C 	flipY DWORD ? 
 0000002C  00000000	      C 	visible DWORD ?
			      C SpriteComponent ENDS
			      C 
			      C ENDIF
			      C 
			      C 
			      C ; // Enumerations
			      C RC_ENUM TYPEDEF DWORD
			      C 
 = 00000000		      C RC_RECT = 0 ; // RenderCommand Rectangle
 = 00000001		      C RC_SPRITE = 1 ; // RenderCommand Sprite NYI
			      C 
 0000000C		      C RenderCommand STRUCT
 00000000  00000000	      C 	rcType RC_ENUM ? ; // Render command type
			      C 
			      C 	; // Pointer to the transform that describes where the object should be rendered
 00000004  00000000	      C 	pTransform DWORD ?
			      C 
			      C 	; // Pointer to the renderable object. Could be a RectComponent, or a SpriteComponent 
			      C 	; // depending on the value of rcType
 00000008  00000000	      C 	pRenderable DWORD ?
			      C RenderCommand ENDS
			      C 
			      C ; // Constructor methods
			      C init_render_command PROTO rcType: RC_ENUM, pTransform : DWORD, pRenderable : DWORD
			      C new_render_command PROTO rcType: RC_ENUM, pTransform: DWORD, pRenderable: DWORD
			      C free_render_command PROTO pRenderCommand: DWORD
			      C 
			      C ENDIF
			      C 

				ExitProcess PROTO STDCALL : DWORD

 00000000			.code
 00000000			main PROC PUBLIC
					local pTrans: DWORD, pRect: DWORD, pRC

 00000000  55		   *	    push   ebp
 00000001  8B EC	   *	    mov    ebp, esp
 00000003  83 C4 F4	   *	    add    esp, 0FFFFFFF4h
					INVOKE initialize_heap
 00000006  E8 00000000 E   *	    call   initialize_heap

					; // Create the classes
					INVOKE new_transform_component, 1, 2, 0
 0000000B  6A 00	   *	    push   +000000000h
 0000000D  6A 02	   *	    push   +000000002h
 0000000F  6A 01	   *	    push   +000000001h
 00000011  E8 00000000 E   *	    call   new_transform_component
 00000016  89 45 FC			mov pTrans, eax
					INVOKE new_rect_component, 5, 6, 255, 127, 56, 255
 00000019  68 000000FF	   *	    push   +0000000FFh
 0000001E  6A 38	   *	    push   +000000038h
 00000020  6A 7F	   *	    push   +00000007Fh
 00000022  68 000000FF	   *	    push   +0000000FFh
 00000027  6A 06	   *	    push   +000000006h
 00000029  6A 05	   *	    push   +000000005h
 0000002B  E8 00000000 E   *	    call   new_rect_component
 00000030  89 45 F8			mov pRect, eax
					INVOKE new_render_command, RC_RECT, pTrans, pRect
 00000033  FF 75 F8	   *	    push   dword  ptr ss:[ebp]+0FFFFFFF8h
 00000036  FF 75 FC	   *	    push   dword  ptr ss:[ebp]+0FFFFFFFCh
 00000039  6A 00	   *	    push   +000000000h
 0000003B  E8 00000000 E   *	    call   new_render_command
 00000040  89 45 F4			mov pRC, eax

					; // do stuff with the classes
 00000043  8B 7D FC			mov edi, pTrans
 00000046  C7 47 08			mov (TransformComponent PTR [edi]).x, 5
	   00000005
 0000004D  8B 7D F8			mov edi, pRect
 00000050  C6 47 13 0A			mov (RectComponent PTR [edi]).a, 10
 00000054  8B 7D F4			mov edi, pRC
 00000057  C7 07 00000001		mov (RenderCommand PTR [edi]).rcType, RC_SPRITE

					; // Free the classes
 0000005D  8B 4D FC			mov ecx, pTrans
 00000060  8B 59 04			mov ebx, (Component PTR [ecx]).pVt
 00000063  8B 1B			mov ebx, (Component_vtable PTR [ebx]).pFree
 00000065  FF D3			call ebx

					INVOKE free_rect_component, pRect
 00000067  FF 75 F8	   *	    push   dword  ptr ss:[ebp]+0FFFFFFF8h
 0000006A  E8 00000000 E   *	    call   free_rect_component
 0000006F  8B 4D F4			mov ecx, pRC
					INVOKE free_render_command, pRC
 00000072  FF 75 F4	   *	    push   dword  ptr ss:[ebp]+0FFFFFFF4h
 00000075  E8 00000000 E   *	    call   free_render_command

					INVOKE ExitProcess, 0
 0000007A  6A 00	   *	    push   +000000000h
 0000007C  E8 00000000 E   *	    call   ExitProcess
					ret
 00000081  C9		   *	    leave  
 00000082  C3		   *	    ret    00000h
 00000083			main ENDP

				END main
Microsoft (R) Macro Assembler Version 14.00.24210.0	    03/24/26 23:20:37
classes_test.asm					     Symbols 2 - 1




Macros:

                N a m e                 Type

DEF_ENUM . . . . . . . . . . . .	Proc


Structures and Unions:

                N a m e                  Size
                                         Offset      Type

Component_vtable . . . . . . . .	 00000004
  pFree  . . . . . . . . . . . .	 00000000	 DWord
Component  . . . . . . . . . . .	 00000008
  componentType  . . . . . . . .	 00000000	 DWord
  pVt  . . . . . . . . . . . . .	 00000004	 DWord
RectComponent  . . . . . . . . .	 00000018
  baseComponent  . . . . . . . .	 00000000	 QWord
  h  . . . . . . . . . . . . . .	 00000008	 DWord
  w  . . . . . . . . . . . . . .	 0000000C	 DWord
  r  . . . . . . . . . . . . . .	 00000010	 Byte
  g  . . . . . . . . . . . . . .	 00000011	 Byte
  b  . . . . . . . . . . . . . .	 00000012	 Byte
  a  . . . . . . . . . . . . . .	 00000013	 Byte
  visible  . . . . . . . . . . .	 00000014	 DWord
RenderCommand  . . . . . . . . .	 0000000C
  rcType . . . . . . . . . . . .	 00000000	 DWord
  pTransform . . . . . . . . . .	 00000004	 DWord
  pRenderable  . . . . . . . . .	 00000008	 DWord
SpriteComponent  . . . . . . . .	 00000030
  baseComponent  . . . . . . . .	 00000000	 QWord
  originX  . . . . . . . . . . .	 00000008	 DWord
  originY  . . . . . . . . . . .	 0000000C	 DWord
  pTexture . . . . . . . . . . .	 00000010	 DWord
  cellX  . . . . . . . . . . . .	 00000014	 DWord
  cellY  . . . . . . . . . . . .	 00000018	 DWord
  cellW  . . . . . . . . . . . .	 0000001C	 DWord
  cellH  . . . . . . . . . . . .	 00000020	 DWord
  flipX  . . . . . . . . . . . .	 00000024	 DWord
  flipY  . . . . . . . . . . . .	 00000028	 DWord
  visible  . . . . . . . . . . .	 0000002C	 DWord
TransformComponent . . . . . . .	 00000014
  baseComponent  . . . . . . . .	 00000000	 QWord
  x  . . . . . . . . . . . . . .	 00000008	 DWord
  y  . . . . . . . . . . . . . .	 0000000C	 DWord
  ignoreCamera . . . . . . . . .	 00000010	 DWord


Types:

                N a m e                  Size     Attr

ENUM_COMPONENT_ID  . . . . . . .	 00000004     DWord
HANDLE . . . . . . . . . . . . .	 00000004     DWord
RC_ENUM  . . . . . . . . . . . .	 00000004     DWord


Segments and Groups:

                N a m e                 Size     Length   Align   Combine Class

FLAT . . . . . . . . . . . . . .	GROUP
STACK  . . . . . . . . . . . . .	32 Bit	 00001000 DWord	  Stack	  'STACK'	 
_DATA  . . . . . . . . . . . . .	32 Bit	 00000000 DWord	  Public  'DATA'	
_TEXT  . . . . . . . . . . . . .	32 Bit	 00000083 DWord	  Public  'CODE'	


Procedures, parameters, and locals:

                N a m e                 Type     Value    Attr

ExitProcess  . . . . . . . . . .	P Near	 00000000 FLAT	Length= 00000000 External STDCALL
GetProcessHeap . . . . . . . . .	P Near	 00000000 FLAT	Length= 00000000 External STDCALL
HeapAlloc  . . . . . . . . . . .	P Near	 00000000 FLAT	Length= 00000000 External STDCALL
HeapFree . . . . . . . . . . . .	P Near	 00000000 FLAT	Length= 00000000 External STDCALL
HeapReAlloc  . . . . . . . . . .	P Near	 00000000 FLAT	Length= 00000000 External STDCALL
free_component . . . . . . . . .	P Near	 00000000 FLAT	Length= 00000000 External STDCALL
free_rect_component  . . . . . .	P Near	 00000000 FLAT	Length= 00000000 External STDCALL
free_render_command  . . . . . .	P Near	 00000000 FLAT	Length= 00000000 External STDCALL
free_transform_component . . . .	P Near	 00000000 FLAT	Length= 00000000 External STDCALL
init_component . . . . . . . . .	P Near	 00000000 FLAT	Length= 00000000 External STDCALL
init_rect_component  . . . . . .	P Near	 00000000 FLAT	Length= 00000000 External STDCALL
init_render_command  . . . . . .	P Near	 00000000 FLAT	Length= 00000000 External STDCALL
init_transform_component . . . .	P Near	 00000000 FLAT	Length= 00000000 External STDCALL
initialize_heap  . . . . . . . .	P Near	 00000000 FLAT	Length= 00000000 External STDCALL
main . . . . . . . . . . . . . .	P Near	 00000000 _TEXT	Length= 00000083 Public STDCALL
  pTrans . . . . . . . . . . . .	DWord	 bp - 00000004
  pRect  . . . . . . . . . . . .	DWord	 bp - 00000008
  pRC  . . . . . . . . . . . . .	DWord	 bp - 0000000C
new_component  . . . . . . . . .	P Near	 00000000 FLAT	Length= 00000000 External STDCALL
new_rect_component . . . . . . .	P Near	 00000000 FLAT	Length= 00000000 External STDCALL
new_render_command . . . . . . .	P Near	 00000000 FLAT	Length= 00000000 External STDCALL
new_transform_component  . . . .	P Near	 00000000 FLAT	Length= 00000000 External STDCALL


Symbols:

                N a m e                 Type     Value    Attr

@CodeSize  . . . . . . . . . . .	Number	 00000000h   
@DataSize  . . . . . . . . . . .	Number	 00000000h   
@Interface . . . . . . . . . . .	Number	 00000003h   
@Model . . . . . . . . . . . . .	Number	 00000007h   
@code  . . . . . . . . . . . . .	Text   	 _TEXT
@data  . . . . . . . . . . . . .	Text   	 FLAT
@fardata?  . . . . . . . . . . .	Text   	 FLAT
@fardata . . . . . . . . . . . .	Text   	 FLAT
@stack . . . . . . . . . . . . .	Text   	 FLAT
COMPONENT_IDS_INC  . . . . . . .	Number	 00000001h   
COMPONENT_INC  . . . . . . . . .	Number	 00000001h   
DEFAULT_COMPONENT_ID . . . . . .	Number	 00000000h   
HEAP_FUNCTIONS_INC . . . . . . .	Number	 00000001h   
HEAP_GENERATE_EXCEPTIONS . . . .	Number	 00000004h   
HEAP_NO_SERIALIZE  . . . . . . .	Number	 00000001h   
HEAP_ZERO_MEMORY . . . . . . . .	Number	 00000008h   
NULL . . . . . . . . . . . . . .	Number	 00000000h   
RC_RECT  . . . . . . . . . . . .	Number	 00000000h   
RC_SPRITE  . . . . . . . . . . .	Number	 00000001h   
RECT_COMMAND_INC . . . . . . . .	Number	 00000001h   
RECT_COMPONENT_ID  . . . . . . .	Number	 00000001h   
RENDERER_COMMAND_INC . . . . . .	Number	 00000001h   
SPRITE_COMPONENT_ID  . . . . . .	Number	 00000002h   
SPRITE_COMPONENT_INC . . . . . .	Number	 00000001h   
TRANSFORM_COMPONENT_ID . . . . .	Number	 00000003h   
TRANSFORM_COMPONENT_INC  . . . .	Number	 00000001h   
enumId . . . . . . . . . . . . .	Number	 00000004h   
hHeap  . . . . . . . . . . . . .	DWord	 00000000 FLAT	External STDCALL

	   0 Warnings
	   0 Errors
