Microsoft (R) Macro Assembler Version 14.00.24210.0	    03/24/26 19:48:55
game_object_test.asm					     Page 1 - 1


				; // ==================================
				; // game_objects_test.asm
				; // ----------------------------------
				; // Tests if GameObjects can be created and freed
				; //
				; // Usage: 
				; //	Exclude main.asm from the project and instead include this file, then build,
				; // run, and feel free to debug and test.
				; // ==================================

				INCLUDE default_header.inc
			      C .386
			      C .model flat, stdcall
			      C option casemap : none
			      C .stack 4096
			      C OPTION PROC : PRIVATE
			      C 
				INCLUDE heap_functions.inc
			      C ; // ==================================
			      C ; // heap_functions.inc
			      C ; // ----------------------------------
			      C ; // Functions used for dynamic memory management. This file was
			      C ; // added before we learned about heap memory management in class
			      C ; // so we could have easy memory management. My resource for this 
			      C ; // was the windows API reference and the class ch11 slides.
			      C ; // ==================================
			      C 
			      C IFNDEF HEAP_FUNCTIONS_INC
 = 00000001		      C HEAP_FUNCTIONS_INC EQU 1
			      C 
			      C ; // Constants
 = 00000008		      C HEAP_ZERO_MEMORY          equ 00000008h
 = 00000004		      C HEAP_GENERATE_EXCEPTIONS  equ 00000004h
 = 00000001		      C HEAP_NO_SERIALIZE         equ 00000001h
			      C 
 = 00000000		      C NULL   EQU 0
			      C 
			      C ; // Types
			      C HANDLE TYPEDEF DWORD
			      C 
			      C ; // Protos
			      C GetProcessHeap	PROTO
			      C HeapAlloc		PROTO,	hHeap:DWORD, dwFlags:DWORD, dwBytes:DWORD
			      C HeapFree		PROTO,	hHeap:DWORD, dwFlags:DWORD, lpMem:DWORD
			      C HeapReAlloc		PROTO,	hHeap:DWORD, dwFlags:DWORD, lpMem:DWORD,	dwBytes:DWORD
			      C 
			      C initialize_heap PROTO ; // This function is from heap_functions.asm. It gets the handle to the process heap and stores in hHeap
			      C 
			      C ; // Data
			      C EXTERNDEF hHeap:HANDLE ; // the heap handle is defined in heap_functions.asm
			      C 
			      C ENDIF
			      C 
				INCLUDE transform_component.inc
			      C ; // ==================================
			      C ; // TransformComponent
			      C ; // ----------------------------------
			      C ; // Defines where in space a GameObject should be
			      C ; // represented.
			      C ; // ==================================
			      C 
			      C IFNDEF TRANSFORM_COMPONENT_INC
 = 00000001		      C TRANSFORM_COMPONENT_INC EQU 1
			      C 
 0000000C		      C TransformComponent STRUCT
 00000000  00000000	      C 	x DWORD ?
 00000004  00000000	      C 	y DWORD ?
			      C 
			      C 	; // Whether to ignore the camera offset when rendering.
			      C 	; // Used for drawing UI items
 00000008  00000000	      C 	ignoreCamera DWORD ?
			      C 
			      C 	; // Out of scope for this project
			      C 	; // rotation DWORD ?
			      C 	; // scaleX DWORD ?
			      C 	; // scaleY DWORD ?
			      C TransformComponent ENDS
			      C 
			      C ; // Constructor methods
			      C init_transform_component PROTO x: DWORD, y : DWORD, ignoreCamera : DWORD
			      C new_transform_component PROTO x: DWORD, y: DWORD, ignoreCamera: DWORD
			      C free_transform_component PROTO pTransform: DWORD
			      C 
			      C ENDIF
			      C 
				INCLUDE rect_component.inc
			      C ; // ==================================
			      C ; // RectComponent
			      C ; // ----------------------------------
			      C ; // Defines how a GameObject should appear using a rectangle.
			      C ; // Should be used with a transform for proper functionality.
			      C ; // The origin is defined by a transform.
			      C ; // ==================================
			      C 
			      C IFNDEF RECT_COMMAND_INC
 = 00000001		      C RECT_COMMAND_INC EQU 1
			      C 
 00000010		      C RectComponent STRUCT
 00000000  00000000	      C 	h DWORD ? ; // Height
 00000004  00000000	      C 	w DWORD ? ; // Width
			      C 
			      C 	; // Color (For future development, this should be an RGBA object)
			      C 	; // For simplicity reasons, it is 4 bytes for now. 
 00000008  00		      C 	r BYTE ?
 00000009  00		      C 	g BYTE ?
 0000000A  00		      C 	b BYTE ?
 0000000B  00		      C 	a BYTE ?
			      C 
 0000000C  00000000	      C 	visible DWORD ?
			      C RectComponent ENDS
			      C 
			      C ; // Constructor methods
			      C init_rect_component PROTO h: DWORD, w : DWORD, r : BYTE, g : BYTE, b : BYTE, a : BYTE
			      C new_rect_component PROTO h: DWORD, w: DWORD, r: BYTE, g: BYTE, b:  BYTE, a: BYTE
			      C free_rect_component PROTO pRect: DWORD
			      C 
			      C ENDIF
			      C 
				INCLUDE game_object.inc
			      C ; // ==================================
			      C ; // GameObject
			      C ; // ----------------------------------
			      C ; //	GameObjects are the core elements of a scene
			      C ; // that contain gameplay logic and anything the player
			      C ; // will see.
			      C ; //	This STRUCT is intended to be 'subclassed' by 
			      C ; // overriding the virtual function table.
			      C ; //	GameObjects contain a list of components that
			      C ; // define utility behavior such as sprites to render
			      C ; // or animation states. These componenets are updated
			      C ; // by the scene_update to keep their auxillary functionality
			      C ; // separate from main game logic.
			      C ; // ==================================
			      C 
			      C IFNDEF GAME_OBJECT_INC
 = 00000001		      C GAME_OBJECT_INC EQU 1
			      C 
 0000000C		      C GameObject_vtable STRUCT
 00000000  00000000	      C 	pStart DWORD ? ; For initialization of the GameObject
 00000004  00000000	      C 	pUpdate DWORD ? ; For game logic that will run every frame update
 00000008  00000000	      C 	pExit DWORD ? ; Called when the GameObject is removed
			      C GameObject_vtable ENDS
			      C 
 00000010		      C GameObject STRUCT
 00000000  00000000	      C 	numComponents DWORD 0
 00000004  00000000	      C 	maxComponents DWORD ?
 00000008  00000000	      C 	pComponents DWORD ? ; Pointer to a table of components
 0000000C  00000000	      C 	pVt DWORD ? ; Pointer to a virtual function table
			      C GameObject ENDS
			      C 
			      C ; // Static methods
			      C add_component PROTO pGameObject: DWORD, pComponent: DWORD
			      C 
			      C ; // Constructors
			      C init_game_object PROTO maxComponents : DWORD
			      C new_game_object PROTO maxComponents : DWORD
			      C free_game_object PROTO pGameObject: DWORD
			      C 
			      C ENDIF
			      C 

				ExitProcess PROTO STDCALL : DWORD

 00000000			.code
 00000000			main PROC PUBLIC
					INVOKE initialize_heap
 00000000  E8 00000000 E   *	    call   initialize_heap
					INVOKE ExitProcess, 0
 00000005  6A 00	   *	    push   +000000000h
 00000007  E8 00000000 E   *	    call   ExitProcess
 0000000C  C3				ret
 0000000D			main ENDP

				END main
Microsoft (R) Macro Assembler Version 14.00.24210.0	    03/24/26 19:48:55
game_object_test.asm					     Symbols 2 - 1




Structures and Unions:

                N a m e                  Size
                                         Offset      Type

GameObject_vtable  . . . . . . .	 0000000C
  pStart . . . . . . . . . . . .	 00000000	 DWord
  pUpdate  . . . . . . . . . . .	 00000004	 DWord
  pExit  . . . . . . . . . . . .	 00000008	 DWord
GameObject . . . . . . . . . . .	 00000010
  numComponents  . . . . . . . .	 00000000	 DWord
  maxComponents  . . . . . . . .	 00000004	 DWord
  pComponents  . . . . . . . . .	 00000008	 DWord
  pVt  . . . . . . . . . . . . .	 0000000C	 DWord
RectComponent  . . . . . . . . .	 00000010
  h  . . . . . . . . . . . . . .	 00000000	 DWord
  w  . . . . . . . . . . . . . .	 00000004	 DWord
  r  . . . . . . . . . . . . . .	 00000008	 Byte
  g  . . . . . . . . . . . . . .	 00000009	 Byte
  b  . . . . . . . . . . . . . .	 0000000A	 Byte
  a  . . . . . . . . . . . . . .	 0000000B	 Byte
  visible  . . . . . . . . . . .	 0000000C	 DWord
TransformComponent . . . . . . .	 0000000C
  x  . . . . . . . . . . . . . .	 00000000	 DWord
  y  . . . . . . . . . . . . . .	 00000004	 DWord
  ignoreCamera . . . . . . . . .	 00000008	 DWord


Types:

                N a m e                  Size     Attr

HANDLE . . . . . . . . . . . . .	 00000004     DWord


Segments and Groups:

                N a m e                 Size     Length   Align   Combine Class

FLAT . . . . . . . . . . . . . .	GROUP
STACK  . . . . . . . . . . . . .	32 Bit	 00001000 DWord	  Stack	  'STACK'	 
_DATA  . . . . . . . . . . . . .	32 Bit	 00000000 DWord	  Public  'DATA'	
_TEXT  . . . . . . . . . . . . .	32 Bit	 0000000D DWord	  Public  'CODE'	


Procedures, parameters, and locals:

                N a m e                 Type     Value    Attr

ExitProcess  . . . . . . . . . .	P Near	 00000000 FLAT	Length= 00000000 External STDCALL
GetProcessHeap . . . . . . . . .	P Near	 00000000 FLAT	Length= 00000000 External STDCALL
HeapAlloc  . . . . . . . . . . .	P Near	 00000000 FLAT	Length= 00000000 External STDCALL
HeapFree . . . . . . . . . . . .	P Near	 00000000 FLAT	Length= 00000000 External STDCALL
HeapReAlloc  . . . . . . . . . .	P Near	 00000000 FLAT	Length= 00000000 External STDCALL
add_component  . . . . . . . . .	P Near	 00000000 FLAT	Length= 00000000 External STDCALL
free_game_object . . . . . . . .	P Near	 00000000 FLAT	Length= 00000000 External STDCALL
free_rect_component  . . . . . .	P Near	 00000000 FLAT	Length= 00000000 External STDCALL
free_transform_component . . . .	P Near	 00000000 FLAT	Length= 00000000 External STDCALL
init_game_object . . . . . . . .	P Near	 00000000 FLAT	Length= 00000000 External STDCALL
init_rect_component  . . . . . .	P Near	 00000000 FLAT	Length= 00000000 External STDCALL
init_transform_component . . . .	P Near	 00000000 FLAT	Length= 00000000 External STDCALL
initialize_heap  . . . . . . . .	P Near	 00000000 FLAT	Length= 00000000 External STDCALL
main . . . . . . . . . . . . . .	P Near	 00000000 _TEXT	Length= 0000000D Public STDCALL
new_game_object  . . . . . . . .	P Near	 00000000 FLAT	Length= 00000000 External STDCALL
new_rect_component . . . . . . .	P Near	 00000000 FLAT	Length= 00000000 External STDCALL
new_transform_component  . . . .	P Near	 00000000 FLAT	Length= 00000000 External STDCALL


Symbols:

                N a m e                 Type     Value    Attr

@CodeSize  . . . . . . . . . . .	Number	 00000000h   
@DataSize  . . . . . . . . . . .	Number	 00000000h   
@Interface . . . . . . . . . . .	Number	 00000003h   
@Model . . . . . . . . . . . . .	Number	 00000007h   
@code  . . . . . . . . . . . . .	Text   	 _TEXT
@data  . . . . . . . . . . . . .	Text   	 FLAT
@fardata?  . . . . . . . . . . .	Text   	 FLAT
@fardata . . . . . . . . . . . .	Text   	 FLAT
@stack . . . . . . . . . . . . .	Text   	 FLAT
GAME_OBJECT_INC  . . . . . . . .	Number	 00000001h   
HEAP_FUNCTIONS_INC . . . . . . .	Number	 00000001h   
HEAP_GENERATE_EXCEPTIONS . . . .	Number	 00000004h   
HEAP_NO_SERIALIZE  . . . . . . .	Number	 00000001h   
HEAP_ZERO_MEMORY . . . . . . . .	Number	 00000008h   
NULL . . . . . . . . . . . . . .	Number	 00000000h   
RECT_COMMAND_INC . . . . . . . .	Number	 00000001h   
TRANSFORM_COMPONENT_INC  . . . .	Number	 00000001h   
hHeap  . . . . . . . . . . . . .	DWord	 00000000 FLAT	External STDCALL

	   0 Warnings
	   0 Errors
