Microsoft (R) Macro Assembler Version 14.00.24210.0	    04/02/26 01:24:08
explosion_game_object.asm				     Page 1 - 1


				; // ==================================
				; // explosion_game_object.asm
				; // ----------------------------------
				; // Appears large and opaque at first before fading away.
				; // ==================================

				INCLUDE default_header.inc
			      C .386
			      C .model flat, stdcall
			      C option casemap : none
			      C .stack 4096
			      C OPTION PROC : PRIVATE
			      C 
				INCLUDE heap_functions.inc
			      C ; // ==================================
			      C ; // heap_functions.inc
			      C ; // ----------------------------------
			      C ; // Functions used for dynamic memory management. This file was
			      C ; // added before we learned about heap memory management in class
			      C ; // so we could have easy memory management. My resource for this 
			      C ; // was the windows API reference and the class ch11 slides.
			      C ; // ==================================
			      C 
			      C IFNDEF HEAP_FUNCTIONS_INC
 = 00000001		      C HEAP_FUNCTIONS_INC EQU 1
			      C 
			      C ; // Constants
 = 00000008		      C HEAP_ZERO_MEMORY          equ 00000008h
 = 00000004		      C HEAP_GENERATE_EXCEPTIONS  equ 00000004h
 = 00000001		      C HEAP_NO_SERIALIZE         equ 00000001h
			      C 
 = 00000000		      C NULL   EQU 0
			      C 
			      C ; // Types
			      C HANDLE TYPEDEF DWORD
			      C 
			      C ; // Protos
			      C GetProcessHeap	PROTO
			      C HeapAlloc		PROTO,	hHeap:DWORD, dwFlags:DWORD, dwBytes:DWORD
			      C HeapFree		PROTO,	hHeap:DWORD, dwFlags:DWORD, lpMem:DWORD
			      C HeapReAlloc		PROTO,	hHeap:DWORD, dwFlags:DWORD, lpMem:DWORD,	dwBytes:DWORD
			      C 
			      C initialize_heap PROTO ; // This function is from heap_functions.asm. It gets the handle to the process heap and stores in hHeap
			      C 
			      C ; // Data
			      C EXTERNDEF hHeap:HANDLE ; // the heap handle is defined in heap_functions.asm
			      C 
			      C ENDIF
			      C 
				INCLUDE explosion_game_object.inc
			      C ; // ==================================
			      C ; // explosion_game_object.inc.asm
			      C ; // ----------------------------------
			      C ; // Appears large and opaque at first before fading away.
			      C ; // ==================================
			      C 
			      C IFNDEF EXPLOSION_GAME_OBJECT_INC
 = 00000001		      C EXPLOSION_GAME_OBJECT_INC EQU 1
			      C 
			      C INCLUDE game_object.inc
			      C ; // ==================================
			      C ; // GameObject
			      C ; // ----------------------------------
			      C ; //	GameObjects are the core elements of a scene
			      C ; // that contain gameplay logic and anything the player
			      C ; // will see.
			      C ; //	This STRUCT is intended to be 'subclassed' by 
			      C ; // overriding the virtual function table.
			      C ; //	GameObjects contain a list of components that
			      C ; // define utility behavior such as sprites to render
			      C ; // or animation states. These componenets are updated
			      C ; // by the scene_update to keep their auxillary functionality
			      C ; // separate from main game logic.
			      C ; // ==================================
			      C 
			      C IFNDEF GAME_OBJECT_INC
 = 00000001		      C GAME_OBJECT_INC EQU 1
			      C 
			      C INCLUDE game_object_ids.inc
			      C ; // ==================================
			      C ; // game_object_ids.inc
			      C ; // ----------------------------------
			      C ; // A set of "enum" style macros that identify GameObject types 
			      C ; // for the data definition and parsing of a scene's data.
			      C ; //
			      C ; // This is necessary because GameObjects are designed to be
			      C ; // subclassed into new unique types of GameObjects defined
			      C ; // by the user of this engine.
			      C ; // ==================================
			      C 
			      C IFNDEF GAME_OBJECT_IDS_INC
 = 00000001		      C GAME_OBJECT_IDS_INC EQU 1
			      C 
			      C ; // A helper function to make defining a bunch of enums smoother
 = 00000000		      C enumId = 0
			      C DEF_ENUM MACRO enum_name
			      C 	enum_name = enumId
			      C 	enumId = enumId + 1
			      C ENDM
			      C 
			      C ENUM_GAME_OBJECT_ID TYPEDEF DWORD
			      C 
			      C ; // List of GameObject identifiers
			      C DEF_ENUM DEFAULT_GAME_OBJECT_ID
			      C DEF_ENUM CAMERA_MOVER_GAME_OBJECT_ID
			      C DEF_ENUM NEON_SQUARE_PLAYER_GAME_OBJECT_ID
			      C DEF_ENUM WALL_OBSTACLE_GAME_OBJECT_ID
			      C DEF_ENUM NEON_GAME_MANAGER_GAME_OBJECT_ID
			      C DEF_ENUM EXPLOSION_GAME_OBJECT_ID
			      C 
			      C ENDIF
			      C 
			      C INCLUDE unordered_vector.inc
			      C ; // ==================================
			      C ; // unordered_vector.inc
			      C ; // ----------------------------------
			      C ; // unordered_vector are dynamic arrays of DWORDs
			      C ; // whose contents are not guaranteed to be in the same
			      C ; // order after a removal. They are typically used for 
			      C ; // pools of GameObject pointers whose order doesn't matter.
			      C ; // ==================================
			      C 
			      C IFNDEF UNORDERED_VECTOR_INC
 = 00000001		      C UNORDERED_VECTOR_INC EQU 1
			      C 
 0000000C		      C UnorderedVector STRUCT
 00000000  00000000	      C 	pData		DWORD ?
 00000004  00000000	      C 	count		DWORD ?
 00000008  00000000	      C 	capacity	DWORD ?
			      C UnorderedVector ENDS
			      C 
			      C ; // Constructors
			      C init_unordered_vector PROTO capacity : DWORD
			      C new_unordered_vector PROTO capacity: DWORD
			      C free_unordered_vector PROTO
			      C 
			      C ; // Instance methods
			      C push_back PROTO element: DWORD
			      C remove_element PROTO element: DWORD
			      C 
			      C ENDIF
			      C 
			      C INCLUDE component_ids.inc
			      C ; // ==================================
			      C ; // component_ids.inc
			      C ; // ----------------------------------
			      C ; // A set of "enum" style macros that identify component types 
			      C ; // for the data definition and parsing of a scene's data.
			      C ; // ==================================
			      C 
			      C IFNDEF COMPONENT_IDS_INC
 = 00000001		      C COMPONENT_IDS_INC EQU 1
			      C 
			      C ; // A helper function to make defining a bunch of enums smoother
 = 00000000		      C enumId = 0
			      C DEF_ENUM MACRO enum_name
			      C 	enum_name = enumId
			      C 	enumId = enumId + 1
			      C ENDM
			      C 
			      C ENUM_COMPONENT_ID TYPEDEF DWORD
			      C 
			      C ; // List of component identifiers
			      C DEF_ENUM DEFAULT_COMPONENT_ID
			      C DEF_ENUM RECT_COMPONENT_ID
			      C DEF_ENUM SPRITE_COMPONENT_ID
			      C DEF_ENUM TRANSFORM_COMPONENT_ID
			      C DEF_ENUM RENDERABLE_COMPONENT_ID
			      C 
			      C ENDIF
			      C 
			      C 
			      C ENUM_GAME_OBJECT_ID TYPEDEF DWORD
			      C 
 00000010		      C GameObject_vtable STRUCT
 00000000  00000000	      C 	pStart DWORD ? ; For game logic that should run just after the GameObjec is initialized
 00000004  00000000	      C 	pUpdate DWORD ? ; For game logic that will run every frame update
 00000008  00000000	      C 	pExit DWORD ? ; For game logic that should run just before the GameObject is freed
 0000000C  00000000	      C 	pFree DWORD ? ; Destructor
			      C GameObject_vtable ENDS
			      C 
 0000001C		      C GameObject STRUCT
 00000000  00000000	      C 	gameObjectType ENUM_GAME_OBJECT_ID ?
 00000004  00000000	      C 	components UnorderedVector <>
	   00000000
	   00000000
 00000010  00000000	      C 	pVt DWORD ? ; Pointer to a virtual function table
			      C 
 00000014  00000000	      C 	pParentScene DWORD ?
			      C 
			      C 	; // Flags
 00000018  00000000	      C 	awaitingFree DWORD ? ; // Whether the object is awaiting removal from the scene. Zero if FALSE, nonzero if TRUE
			      C GameObject ENDS
			      C 
			      C ; // Static methods
			      C add_component PROTO pGameObject: DWORD, pComponent: DWORD
			      C check_rect_collision PROTO pRect1 : DWORD, pTrans1 : DWORD, pRect2 : DWORD, pTrans2 : DWORD
			      C 
			      C ; // Constructors
			      C init_game_object PROTO maxComponents : DWORD
			      C new_game_object PROTO maxComponents : DWORD
			      C free_game_object PROTO
			      C 
			      C ; // Instance methods
			      C get_first_component_which_is_a	PROTO componentType : ENUM_COMPONENT_ID
			      C game_object_start_virtual		PROTO
			      C game_object_free_virtual		PROTO
			      C game_object_update_virtual		PROTO deltaTime : REAL4
			      C game_object_exit				PROTO
			      C game_object_start				PROTO
			      C game_object_update				PROTO deltaTime: REAL4
			      C 
			      C ENDIF
			      C 
			      C 
 0000001C		      C Explosion STRUCT
 00000000  00000000	      C 	baseGameObject GameObject<>
	   00000000
	   00000000
	   00000000
	   00000000
	   00000000
	   00000000
			      C Explosion ENDS
			      C 
			      C init_explosion_game_object PROTO
			      C new_explosion_game_object PROTO
			      C 
			      C ENDIF
			      C 
				INCLUDE transform_component.inc
			      C ; // ==================================
			      C ; // TransformComponent
			      C ; // ----------------------------------
			      C ; // Defines where in space a GameObject should be
			      C ; // represented.
			      C ; // ==================================
			      C 
			      C IFNDEF TRANSFORM_COMPONENT_INC
 = 00000001		      C TRANSFORM_COMPONENT_INC EQU 1
			      C 
			      C INCLUDE component.inc
			      C ; // ==================================
			      C ; // component.inc
			      C ; // ----------------------------------
			      C ; //	Components are utility helpers to GameObjects that
			      C ; // allow for easy adding of features and a composition
			      C ; // structure for them (HasA vs IsA). 
			      C ; //	Some examples of components are SpriteComponents
			      C ; // that describe what a GameObject should look like or
			      C ; // TransformComponents that describe where a GameObject
			      C ; // is located spatially. 
			      C ; //	This is the generic component STRUCT that
			      C ; // all components inherit from.
			      C ; // ==================================
			      C 
			      C IFNDEF COMPONENT_INC
 = 00000001		      C COMPONENT_INC EQU 1
			      C 
			      C INCLUDE component_ids.inc
			      C ; // ==================================
			      C ; // component_ids.inc
			      C ; // ----------------------------------
			      C ; // A set of "enum" style macros that identify component types 
			      C ; // for the data definition and parsing of a scene's data.
			      C ; // ==================================
			      C 
			      C IFNDEF COMPONENT_IDS_INC
			      C ENDIF
			      C 
			      C 
 00000004		      C Component_vtable STRUCT
 00000000  00000000	      C 	pFree DWORD ?
			      C Component_vtable ENDS
			      C 
 00000008		      C Component STRUCT
 00000000  00000000	      C 	componentType ENUM_COMPONENT_ID DEFAULT_COMPONENT_ID
 00000004  00000000	      C 	pVt DWORD ?
			      C Component ENDS
			      C 
			      C ; // Constructor protos
			      C init_component PROTO
			      C new_component PROTO
			      C free_component PROTO
			      C free_component_virtual PROTO
			      C 
			      C ENDIF
			      C 
			      C 
 00000014		      C TransformComponent STRUCT
 00000000  00000000	      C 	baseComponent Component <>
	   00000000
			      C 
 00000008  00000000	      C 	x SDWORD ?
 0000000C  00000000	      C 	y SDWORD ?
			      C 
			      C 	; // Whether to ignore the camera offset when rendering.
			      C 	; // Used for drawing UI items
 00000010  00000000	      C 	ignoreCamera DWORD ?
			      C 
			      C 	; // Out of scope for this project
			      C 	; // rotation DWORD ?
			      C 	; // scaleX DWORD ?
			      C 	; // scaleY DWORD ?
			      C TransformComponent ENDS
			      C 
			      C ; // Constructor methods
			      C init_transform_component PROTO x: DWORD, y : DWORD, ignoreCamera : DWORD
			      C new_transform_component PROTO x: DWORD, y: DWORD, ignoreCamera: DWORD
			      C free_transform_component PROTO
			      C 
			      C ENDIF
			      C 
				INCLUDE rect_component.inc
			      C ; // ==================================
			      C ; // rect_component.inc
			      C ; // ----------------------------------
			      C ; // Defines how a GameObject should appear using a rectangle.
			      C ; // Should be used with a transform for proper functionality.
			      C ; // The origin is defined by a transform.
			      C ; // ==================================
			      C 
			      C IFNDEF RECT_COMMAND_INC
 = 00000001		      C RECT_COMMAND_INC EQU 1
			      C 
			      C INCLUDE renderable_component.inc
			      C ; // ==================================
			      C ; // renderable_component.inc
			      C ; // ----------------------------------
			      C ; // A subclass of component that provides
			      C ; // fields for the RenderableComponents which
			      C ; // are RectComponents and SpriteComponents
			      C ; // ==================================
			      C 
			      C IFNDEF RENDERABLE_COMPONENT_INC
 = 00000001		      C RENDERABLE_COMPONENT_INC EQU 1
			      C 
			      C INCLUDE component.inc
			      C ; // ==================================
			      C ; // component.inc
			      C ; // ----------------------------------
			      C ; //	Components are utility helpers to GameObjects that
			      C ; // allow for easy adding of features and a composition
			      C ; // structure for them (HasA vs IsA). 
			      C ; //	Some examples of components are SpriteComponents
			      C ; // that describe what a GameObject should look like or
			      C ; // TransformComponents that describe where a GameObject
			      C ; // is located spatially. 
			      C ; //	This is the generic component STRUCT that
			      C ; // all components inherit from.
			      C ; // ==================================
			      C 
			      C IFNDEF COMPONENT_INC
			      C ENDIF
			      C 
			      C 
 00000010		      C RenderableComponent STRUCT
 00000000  00000000	      C 	baseComponent Component <>
	   00000000
			      C 
 00000008  00000000	      C 	visible DWORD ?
 0000000C  00000000	      C 	layer DWORD ?
			      C RenderableComponent ENDS
			      C 
			      C ; // Constructor protos
			      C init_renderable_component PROTO visible : DWORD, layer : DWORD
			      C 
			      C ENDIF
			      C 
			      C 
 0000001C		      C RectComponent STRUCT
 00000000  00000000	      C 	baseRenderableComponent RenderableComponent <>
	   00000000
	   00000000
	   00000000
			      C 
 00000010  00000000	      C 	h DWORD ? ; // Height
 00000014  00000000	      C 	w DWORD ? ; // Width
			      C 
			      C 	; // Color (For future development, this should be an RGBA object)
			      C 	; // For simplicity reasons, it is 4 bytes for now. 
 00000018  00		      C 	r BYTE ?
 00000019  00		      C 	g BYTE ?
 0000001A  00		      C 	b BYTE ?
 0000001B  00		      C 	a BYTE ?
			      C RectComponent ENDS
			      C 
			      C ; // Constructor methods
			      C init_rect_component PROTO h: DWORD, w : DWORD, r : BYTE, g : BYTE, b : BYTE, a : BYTE
			      C new_rect_component PROTO h: DWORD, w: DWORD, r: BYTE, g: BYTE, b:  BYTE, a: BYTE
			      C free_rect_component PROTO
			      C 
			      C ENDIF
			      C 

 00000000			.data
 00000000 00000000 E		EXPLOSION_GAMEOBJECT_VTABLE GameObject_vtable <OFFSET game_object_start, OFFSET game_object_update, OFFSET game_object_exit, OFFSET free_game_object>
	   00000000 E
	   00000000 E
	   00000000 E

 00000000			.code
				; // ********************************************
				; // Constructor Methods
				; // ********************************************

				; // ----------------------------------
				; // init_explosion_game_object
				; // Initializes memory with the contents of an Explosion
				; // 
				; // Register Parameters: 
				; //	ecx - THIS pointer
				; // ----------------------------------
 00000000			init_explosion_game_object PROC PUBLIC USES esi ebx edx
					local pThis
 00000000  55		   *	    push   ebp
 00000001  8B EC	   *	    mov    ebp, esp
 00000003  83 C4 FC	   *	    add    esp, 0FFFFFFFCh
 00000006  56		   *	    push   esi
 00000007  53		   *	    push   ebx
 00000008  52		   *	    push   edx
 00000009  89 4D FC			mov pThis, ecx

					; // Parent constructor
					INVOKE init_game_object, 2
 0000000C  6A 02	   *	    push   +000000002h
 0000000E  E8 00000000 E   *	    call   init_game_object
 00000013  C7 01 00000005		mov (GameObject PTR [ecx]).gameObjectType, EXPLOSION_GAME_OBJECT_ID
 00000019  C7 41 10			mov (GameObject PTR [ecx]).pVt, OFFSET EXPLOSION_GAMEOBJECT_VTABLE
	   00000000 R

					; // Add transform component
					INVOKE new_transform_component, 20, 25, 0
 00000020  6A 00	   *	    push   +000000000h
 00000022  6A 19	   *	    push   +000000019h
 00000024  6A 14	   *	    push   +000000014h
 00000026  E8 00000000 E   *	    call   new_transform_component
					INVOKE add_component, pThis, eax
 0000002B  50		   *	    push   eax
 0000002C  FF 75 FC	   *	    push   dword  ptr ss:[ebp]+0FFFFFFFCh
 0000002F  E8 00000000 E   *	    call   add_component

					; // Add rect component
					INVOKE new_rect_component, 2, 2, 0, 255, 0, 255
 00000034  68 000000FF	   *	    push   +0000000FFh
 00000039  6A 00	   *	    push   +000000000h
 0000003B  68 000000FF	   *	    push   +0000000FFh
 00000040  6A 00	   *	    push   +000000000h
 00000042  6A 02	   *	    push   +000000002h
 00000044  6A 02	   *	    push   +000000002h
 00000046  E8 00000000 E   *	    call   new_rect_component
					INVOKE add_component, pThis, eax
 0000004B  50		   *	    push   eax
 0000004C  FF 75 FC	   *	    push   dword  ptr ss:[ebp]+0FFFFFFFCh
 0000004F  E8 00000000 E   *	    call   add_component

 00000054  8B 45 FC			mov eax, pThis
						
					ret
 00000057  5A		   *	    pop    edx
 00000058  5B		   *	    pop    ebx
 00000059  5E		   *	    pop    esi
 0000005A  C9		   *	    leave  
 0000005B  C3		   *	    ret    00000h
 0000005C			init_explosion_game_object ENDP

				; // ----------------------------------
				; // new_explosion_game_object
				; // Reserves heap space for the Object with parameters calls the initializer method
				; // ----------------------------------
 0000005C			new_explosion_game_object PROC PUBLIC USES ecx
 0000005C  51		   *	    push   ecx
					INVOKE HeapAlloc, hHeap, HEAP_GENERATE_EXCEPTIONS, SIZEOF Explosion
 0000005D  6A 1C	   *	    push   +00000001Ch
 0000005F  6A 04	   *	    push   +000000004h
 00000061  FF 35 00000000 E *	    push   hHeap
 00000067  E8 00000000 E   *	    call   HeapAlloc
 0000006C  8B C8			mov ecx, eax ; // Move the memory address to ecx so it can function as a "this" pointer
					INVOKE init_explosion_game_object
 0000006E  E8 FFFFFF8D	   *	    call   init_explosion_game_object

					ret ; // Return with the address of the memory block in HeapAlloc
 00000073  59		   *	    pop    ecx
 00000074  C3		   *	    ret    00000h
 00000075			new_explosion_game_object ENDP

				END
Microsoft (R) Macro Assembler Version 14.00.24210.0	    04/02/26 01:24:08
explosion_game_object.asm				     Symbols 2 - 1




Macros:

                N a m e                 Type

DEF_ENUM . . . . . . . . . . . .	Proc


Structures and Unions:

                N a m e                  Size
                                         Offset      Type

Component_vtable . . . . . . . .	 00000004
  pFree  . . . . . . . . . . . .	 00000000	 DWord
Component  . . . . . . . . . . .	 00000008
  componentType  . . . . . . . .	 00000000	 DWord
  pVt  . . . . . . . . . . . . .	 00000004	 DWord
Explosion  . . . . . . . . . . .	 0000001C
  baseGameObject . . . . . . . .	 00000000	 
GameObject_vtable  . . . . . . .	 00000010
  pStart . . . . . . . . . . . .	 00000000	 DWord
  pUpdate  . . . . . . . . . . .	 00000004	 DWord
  pExit  . . . . . . . . . . . .	 00000008	 DWord
  pFree  . . . . . . . . . . . .	 0000000C	 DWord
GameObject . . . . . . . . . . .	 0000001C
  gameObjectType . . . . . . . .	 00000000	 DWord
  components . . . . . . . . . .	 00000004	 
  pVt  . . . . . . . . . . . . .	 00000010	 DWord
  pParentScene . . . . . . . . .	 00000014	 DWord
  awaitingFree . . . . . . . . .	 00000018	 DWord
RectComponent  . . . . . . . . .	 0000001C
  baseRenderableComponent  . . .	 00000000	 XmmWord
  h  . . . . . . . . . . . . . .	 00000010	 DWord
  w  . . . . . . . . . . . . . .	 00000014	 DWord
  r  . . . . . . . . . . . . . .	 00000018	 Byte
  g  . . . . . . . . . . . . . .	 00000019	 Byte
  b  . . . . . . . . . . . . . .	 0000001A	 Byte
  a  . . . . . . . . . . . . . .	 0000001B	 Byte
RenderableComponent  . . . . . .	 00000010
  baseComponent  . . . . . . . .	 00000000	 QWord
  visible  . . . . . . . . . . .	 00000008	 DWord
  layer  . . . . . . . . . . . .	 0000000C	 DWord
TransformComponent . . . . . . .	 00000014
  baseComponent  . . . . . . . .	 00000000	 QWord
  x  . . . . . . . . . . . . . .	 00000008	 DWord
  y  . . . . . . . . . . . . . .	 0000000C	 DWord
  ignoreCamera . . . . . . . . .	 00000010	 DWord
UnorderedVector  . . . . . . . .	 0000000C
  pData  . . . . . . . . . . . .	 00000000	 DWord
  count  . . . . . . . . . . . .	 00000004	 DWord
  capacity . . . . . . . . . . .	 00000008	 DWord


Types:

                N a m e                  Size     Attr

ENUM_COMPONENT_ID  . . . . . . .	 00000004     DWord
ENUM_GAME_OBJECT_ID  . . . . . .	 00000004     DWord
HANDLE . . . . . . . . . . . . .	 00000004     DWord


Segments and Groups:

                N a m e                 Size     Length   Align   Combine Class

FLAT . . . . . . . . . . . . . .	GROUP
STACK  . . . . . . . . . . . . .	32 Bit	 00001000 DWord	  Stack	  'STACK'	 
_DATA  . . . . . . . . . . . . .	32 Bit	 00000010 DWord	  Public  'DATA'	
_TEXT  . . . . . . . . . . . . .	32 Bit	 00000075 DWord	  Public  'CODE'	


Procedures, parameters, and locals:

                N a m e                 Type     Value    Attr

GetProcessHeap . . . . . . . . .	P Near	 00000000 FLAT	Length= 00000000 External STDCALL
HeapAlloc  . . . . . . . . . . .	P Near	 00000000 FLAT	Length= 00000000 External STDCALL
HeapFree . . . . . . . . . . . .	P Near	 00000000 FLAT	Length= 00000000 External STDCALL
HeapReAlloc  . . . . . . . . . .	P Near	 00000000 FLAT	Length= 00000000 External STDCALL
add_component  . . . . . . . . .	P Near	 00000000 FLAT	Length= 00000000 External STDCALL
check_rect_collision . . . . . .	P Near	 00000000 FLAT	Length= 00000000 External STDCALL
free_component_virtual . . . . .	P Near	 00000000 FLAT	Length= 00000000 External STDCALL
free_component . . . . . . . . .	P Near	 00000000 FLAT	Length= 00000000 External STDCALL
free_game_object . . . . . . . .	P Near	 00000000 FLAT	Length= 00000000 External STDCALL
free_rect_component  . . . . . .	P Near	 00000000 FLAT	Length= 00000000 External STDCALL
free_transform_component . . . .	P Near	 00000000 FLAT	Length= 00000000 External STDCALL
free_unordered_vector  . . . . .	P Near	 00000000 FLAT	Length= 00000000 External STDCALL
game_object_exit . . . . . . . .	P Near	 00000000 FLAT	Length= 00000000 External STDCALL
game_object_free_virtual . . . .	P Near	 00000000 FLAT	Length= 00000000 External STDCALL
game_object_start_virtual  . . .	P Near	 00000000 FLAT	Length= 00000000 External STDCALL
game_object_start  . . . . . . .	P Near	 00000000 FLAT	Length= 00000000 External STDCALL
game_object_update_virtual . . .	P Near	 00000000 FLAT	Length= 00000000 External STDCALL
game_object_update . . . . . . .	P Near	 00000000 FLAT	Length= 00000000 External STDCALL
get_first_component_which_is_a .	P Near	 00000000 FLAT	Length= 00000000 External STDCALL
init_component . . . . . . . . .	P Near	 00000000 FLAT	Length= 00000000 External STDCALL
init_explosion_game_object . . .	P Near	 00000000 _TEXT	Length= 0000005C Public STDCALL
  pThis  . . . . . . . . . . . .	DWord	 bp - 00000004
init_game_object . . . . . . . .	P Near	 00000000 FLAT	Length= 00000000 External STDCALL
init_rect_component  . . . . . .	P Near	 00000000 FLAT	Length= 00000000 External STDCALL
init_renderable_component  . . .	P Near	 00000000 FLAT	Length= 00000000 External STDCALL
init_transform_component . . . .	P Near	 00000000 FLAT	Length= 00000000 External STDCALL
init_unordered_vector  . . . . .	P Near	 00000000 FLAT	Length= 00000000 External STDCALL
initialize_heap  . . . . . . . .	P Near	 00000000 FLAT	Length= 00000000 External STDCALL
new_component  . . . . . . . . .	P Near	 00000000 FLAT	Length= 00000000 External STDCALL
new_explosion_game_object  . . .	P Near	 0000005C _TEXT	Length= 00000019 Public STDCALL
new_game_object  . . . . . . . .	P Near	 00000000 FLAT	Length= 00000000 External STDCALL
new_rect_component . . . . . . .	P Near	 00000000 FLAT	Length= 00000000 External STDCALL
new_transform_component  . . . .	P Near	 00000000 FLAT	Length= 00000000 External STDCALL
new_unordered_vector . . . . . .	P Near	 00000000 FLAT	Length= 00000000 External STDCALL
push_back  . . . . . . . . . . .	P Near	 00000000 FLAT	Length= 00000000 External STDCALL
remove_element . . . . . . . . .	P Near	 00000000 FLAT	Length= 00000000 External STDCALL


Symbols:

                N a m e                 Type     Value    Attr

@CodeSize  . . . . . . . . . . .	Number	 00000000h   
@DataSize  . . . . . . . . . . .	Number	 00000000h   
@Interface . . . . . . . . . . .	Number	 00000003h   
@Model . . . . . . . . . . . . .	Number	 00000007h   
@code  . . . . . . . . . . . . .	Text   	 _TEXT
@data  . . . . . . . . . . . . .	Text   	 FLAT
@fardata?  . . . . . . . . . . .	Text   	 FLAT
@fardata . . . . . . . . . . . .	Text   	 FLAT
@stack . . . . . . . . . . . . .	Text   	 FLAT
CAMERA_MOVER_GAME_OBJECT_ID  . .	Number	 00000001h   
COMPONENT_IDS_INC  . . . . . . .	Number	 00000001h   
COMPONENT_INC  . . . . . . . . .	Number	 00000001h   
DEFAULT_COMPONENT_ID . . . . . .	Number	 00000000h   
DEFAULT_GAME_OBJECT_ID . . . . .	Number	 00000000h   
EXPLOSION_GAMEOBJECT_VTABLE  . .	GameObject_vtable  00000000 _DATA	
EXPLOSION_GAME_OBJECT_ID . . . .	Number	 00000005h   
EXPLOSION_GAME_OBJECT_INC  . . .	Number	 00000001h   
GAME_OBJECT_IDS_INC  . . . . . .	Number	 00000001h   
GAME_OBJECT_INC  . . . . . . . .	Number	 00000001h   
HEAP_FUNCTIONS_INC . . . . . . .	Number	 00000001h   
HEAP_GENERATE_EXCEPTIONS . . . .	Number	 00000004h   
HEAP_NO_SERIALIZE  . . . . . . .	Number	 00000001h   
HEAP_ZERO_MEMORY . . . . . . . .	Number	 00000008h   
NEON_GAME_MANAGER_GAME_OBJECT_ID .	Number	 00000004h   
NEON_SQUARE_PLAYER_GAME_OBJECT_ID 	Number	 00000002h   
NULL . . . . . . . . . . . . . .	Number	 00000000h   
RECT_COMMAND_INC . . . . . . . .	Number	 00000001h   
RECT_COMPONENT_ID  . . . . . . .	Number	 00000001h   
RENDERABLE_COMPONENT_ID  . . . .	Number	 00000004h   
RENDERABLE_COMPONENT_INC . . . .	Number	 00000001h   
SPRITE_COMPONENT_ID  . . . . . .	Number	 00000002h   
TRANSFORM_COMPONENT_ID . . . . .	Number	 00000003h   
TRANSFORM_COMPONENT_INC  . . . .	Number	 00000001h   
UNORDERED_VECTOR_INC . . . . . .	Number	 00000001h   
WALL_OBSTACLE_GAME_OBJECT_ID . .	Number	 00000003h   
enumId . . . . . . . . . . . . .	Number	 00000005h   
hHeap  . . . . . . . . . . . . .	DWord	 00000000 FLAT	External STDCALL

	   0 Warnings
	   0 Errors
